Archive member included to satisfy reference by file (symbol)

contiki-srf06-cc26xx.a(er-coap-engine.)
                              obj_srf06-cc26xx/res-leds.o (coap_rest_implementation)
contiki-srf06-cc26xx.a(er-coap-transac)
                              contiki-srf06-cc26xx.a(er-coap-engine.) (coap_register_as_transaction_handler)
contiki-srf06-cc26xx.a(er-coap-observe)
                              contiki-srf06-cc26xx.a(er-coap-transac) (coap_remove_observer_by_client)
contiki-srf06-cc26xx.a(er-coap-res-wel)
                              contiki-srf06-cc26xx.a(er-coap-engine.) (res_well_known_core)
contiki-srf06-cc26xx.a(rest-engine.o)
                              obj_srf06-cc26xx/coap-server.o (rest_init_engine)
contiki-srf06-cc26xx.a(mqtt.o)
                              obj_srf06-cc26xx/mqtt-client.o (mqtt_register)
contiki-srf06-cc26xx.a(contiki-main.o)
                              obj_srf06-cc26xx/startup_gcc.o (main)
contiki-srf06-cc26xx.a(sensors.o)
                              cc26xx-web-demo.co (sensors_event)
contiki-srf06-cc26xx.a(leds.o)
                              contiki-srf06-cc26xx.a(contiki-main.o) (leds_init)
contiki-srf06-cc26xx.a(leds-arch.o)
                              contiki-srf06-cc26xx.a(leds.o) (leds_arch_init)
contiki-srf06-cc26xx.a(sensortag-senso)
                              contiki-srf06-cc26xx.a(sensors.o) (sensors_flags)
contiki-srf06-cc26xx.a(bmp-280-sensor.)
                              cc26xx-web-demo.co (bmp_280_sensor)
contiki-srf06-cc26xx.a(tmp-007-sensor.)
                              cc26xx-web-demo.co (tmp_007_sensor)
contiki-srf06-cc26xx.a(opt-3001-sensor)
                              cc26xx-web-demo.co (opt_3001_sensor)
contiki-srf06-cc26xx.a(hdc-1000-sensor)
                              cc26xx-web-demo.co (hdc_1000_sensor)
contiki-srf06-cc26xx.a(mpu-9250-sensor)
                              cc26xx-web-demo.co (mpu_9250_sensor)
contiki-srf06-cc26xx.a(button-sensor.o)
                              contiki-srf06-cc26xx.a(sensortag-senso) (button_right_sensor)
contiki-srf06-cc26xx.a(reed-relay.o)
                              cc26xx-web-demo.co (reed_relay_sensor)
contiki-srf06-cc26xx.a(ext-flash.o)
                              cc26xx-web-demo.co (ext_flash_open)
contiki-srf06-cc26xx.a(buzzer.o)
                              obj_srf06-cc26xx/mqtt-client.o (buzzer_start)
contiki-srf06-cc26xx.a(board.o)
                              contiki-srf06-cc26xx.a(contiki-main.o) (board_init)
contiki-srf06-cc26xx.a(board-spi.o)
                              contiki-srf06-cc26xx.a(ext-flash.o) (board_spi_write)
contiki-srf06-cc26xx.a(board-i2c.o)
                              contiki-srf06-cc26xx.a(board.o) (board_i2c_wakeup)
contiki-srf06-cc26xx.a(clock.o)
                              contiki-srf06-cc26xx.a(contiki-main.o) (clock_init)
contiki-srf06-cc26xx.a(rtimer-arch.o)
                              contiki-srf06-cc26xx.a(mpu-9250-sensor) (rtimer_arch_now)
contiki-srf06-cc26xx.a(soc-rtc.o)
                              contiki-srf06-cc26xx.a(contiki-main.o) (soc_rtc_init)
contiki-srf06-cc26xx.a(contiki-watchdo)
                              contiki-srf06-cc26xx.a(contiki-main.o) (watchdog_init)
contiki-srf06-cc26xx.a(putchar.o)
                              contiki-srf06-cc26xx.a(contiki-main.o) (putchar)
contiki-srf06-cc26xx.a(ieee-addr.o)
                              contiki-srf06-cc26xx.a(contiki-main.o) (ieee_addr_cpy_to)
contiki-srf06-cc26xx.a(batmon-sensor.o)
                              cc26xx-web-demo.co (batmon_sensor)
contiki-srf06-cc26xx.a(cc26xx-uart.o)
                              contiki-srf06-cc26xx.a(contiki-main.o) (cc26xx_uart_init)
contiki-srf06-cc26xx.a(lpm.o)
                              contiki-srf06-cc26xx.a(button-sensor.o) (lpm_shutdown)
contiki-srf06-cc26xx.a(gpio-interrupt.)
                              contiki-srf06-cc26xx.a(button-sensor.o) (gpio_interrupt_register_handler)
contiki-srf06-cc26xx.a(oscillators.o)
                              contiki-srf06-cc26xx.a(contiki-main.o) (oscillators_select_lf_xosc)
contiki-srf06-cc26xx.a(rf-ble.o)
                              obj_srf06-cc26xx/res-ble-advd.o (rf_ble_beacond_config)
contiki-srf06-cc26xx.a(ieee-mode.o)
                              contiki-srf06-cc26xx.a(contiki-main.o) (ieee_mode_driver)
contiki-srf06-cc26xx.a(random.o)
                              cc26xx-web-demo.co (random_rand)
contiki-srf06-cc26xx.a(soc-trng.o)
                              contiki-srf06-cc26xx.a(random.o) (soc_trng_rand_synchronous)
contiki-srf06-cc26xx.a(dbg-printf.o)
                              obj_srf06-cc26xx/net-uart.o (printf)
contiki-srf06-cc26xx.a(dbg-snprintf.o)
                              cc26xx-web-demo.co (snprintf)
contiki-srf06-cc26xx.a(dbg-sprintf.o)
                              cc26xx-web-demo.co (sprintf)
contiki-srf06-cc26xx.a(strformat.o)
                              contiki-srf06-cc26xx.a(dbg-printf.o) (format_str_v)
contiki-srf06-cc26xx.a(autostart.o)
                              contiki-srf06-cc26xx.a(contiki-main.o) (autostart_start)
contiki-srf06-cc26xx.a(energest.o)
                              contiki-srf06-cc26xx.a(contiki-main.o) (energest_init)
contiki-srf06-cc26xx.a(etimer.o)
                              contiki-srf06-cc26xx.a(clock.o) (etimer_request_poll)
contiki-srf06-cc26xx.a(ctimer.o)
                              contiki-srf06-cc26xx.a(contiki-main.o) (ctimer_init)
contiki-srf06-cc26xx.a(process.o)
                              cc26xx-web-demo.co (process_alloc_event)
contiki-srf06-cc26xx.a(rtimer.o)
                              contiki-srf06-cc26xx.a(contiki-main.o) (rtimer_init)
contiki-srf06-cc26xx.a(timer.o)
                              obj_srf06-cc26xx/mqtt-client.o (timer_set)
contiki-srf06-cc26xx.a(serial-line.o)
                              obj_srf06-cc26xx/net-uart.o (serial_line_event_message)
contiki-srf06-cc26xx.a(ringbuf.o)
                              contiki-srf06-cc26xx.a(serial-line.o) (ringbuf_init)
contiki-srf06-cc26xx.a(list.o)
                              contiki-srf06-cc26xx.a(rest-engine.o) (list_init)
contiki-srf06-cc26xx.a(memb.o)
                              obj_srf06-cc26xx/httpd-simple.o (memb_init)
contiki-srf06-cc26xx.a(uip-icmp6.o)
                              cc26xx-web-demo.co (uip_icmp6_send)
contiki-srf06-cc26xx.a(uip-ds6.o)
                              contiki-srf06-cc26xx.a(uip-icmp6.o) (uip_ds6_if)
contiki-srf06-cc26xx.a(uip-ds6-route.o)
                              contiki-srf06-cc26xx.a(uip-ds6.o) (uip_ds6_route_init)
contiki-srf06-cc26xx.a(uip6.o)
                              contiki-srf06-cc26xx.a(er-coap-engine.) (uip_aligned_buf)
contiki-srf06-cc26xx.a(uip-ds6-nbr.o)
                              contiki-srf06-cc26xx.a(uip-ds6.o) (uip_ds6_neighbors_init)
contiki-srf06-cc26xx.a(uip-nd6.o)
                              contiki-srf06-cc26xx.a(uip6.o) (uip_nd6_init)
contiki-srf06-cc26xx.a(sicslowpan.o)
                              cc26xx-web-demo.co (sicslowpan_get_last_rssi)
contiki-srf06-cc26xx.a(uip-debug.o)
                              contiki-srf06-cc26xx.a(uip-ds6-route.o) (uip_debug_ipaddr_print)
contiki-srf06-cc26xx.a(tcp-socket.o)
                              contiki-srf06-cc26xx.a(mqtt.o) (tcp_socket_register)
contiki-srf06-cc26xx.a(uiplib.o)
                              obj_srf06-cc26xx/net-uart.o (uiplib_ip6addrconv)
contiki-srf06-cc26xx.a(uip-udp-packet.)
                              obj_srf06-cc26xx/cetic-6lbr-client.o (uip_udp_packet_send)
contiki-srf06-cc26xx.a(psock.o)
                              obj_srf06-cc26xx/httpd-simple.o (psock_send)
contiki-srf06-cc26xx.a(tcpip.o)
                              contiki-srf06-cc26xx.a(sicslowpan.o) (tcpip_set_outputfunc)
contiki-srf06-cc26xx.a(rpl-dag.o)
                              contiki-srf06-cc26xx.a(tcpip.o) (rpl_repair_root)
contiki-srf06-cc26xx.a(rpl-timers.o)
                              contiki-srf06-cc26xx.a(rpl-dag.o) (rpl_reset_dio_timer)
contiki-srf06-cc26xx.a(rpl-ext-header.)
                              contiki-srf06-cc26xx.a(uip6.o) (rpl_verify_hbh_header)
contiki-srf06-cc26xx.a(rpl.o)
                              contiki-srf06-cc26xx.a(rpl-timers.o) (rpl_get_mode)
contiki-srf06-cc26xx.a(rpl-mrhof.o)
                              contiki-srf06-cc26xx.a(rpl-dag.o) (rpl_mrhof)
contiki-srf06-cc26xx.a(rpl-icmp6.o)
                              contiki-srf06-cc26xx.a(rpl-dag.o) (rpl_icmp6_update_nbr_table)
contiki-srf06-cc26xx.a(setup.o)
                              obj_srf06-cc26xx/startup_gcc.o (NOROM_SetupTrimDevice)
contiki-srf06-cc26xx.a(aon_batmon.o)
                              contiki-srf06-cc26xx.a(batmon-sensor.o) (NOROM_AONBatMonTemperatureGetDegC)
contiki-srf06-cc26xx.a(osc.o)
                              contiki-srf06-cc26xx.a(oscillators.o) (NOROM_OSCClockSourceSet)
contiki-srf06-cc26xx.a(ddi.o)
                              contiki-srf06-cc26xx.a(oscillators.o) (NOROM_DDI16BitfieldWrite)
contiki-srf06-cc26xx.a(sys_ctrl.o)
                              contiki-srf06-cc26xx.a(lpm.o) (NOROM_SysCtrlSetRechargeBeforePowerDown)
contiki-srf06-cc26xx.a(adi.o)
                              contiki-srf06-cc26xx.a(oscillators.o) (SafeHapiVoid)
contiki-srf06-cc26xx.a(pwr_ctrl.o)
                              contiki-srf06-cc26xx.a(lpm.o) (NOROM_PowerCtrlSourceSet)
contiki-srf06-cc26xx.a(trng.o)
                              contiki-srf06-cc26xx.a(soc-trng.o) (NOROM_TRNGConfigure)
contiki-srf06-cc26xx.a(cpu.o)
                              contiki-srf06-cc26xx.a(contiki-main.o) (NOROM_CPUcpsid)
contiki-srf06-cc26xx.a(aon_rtc.o)
                              contiki-srf06-cc26xx.a(rtimer-arch.o) (NOROM_AONRTCCurrentCompareValueGet)
contiki-srf06-cc26xx.a(chipinfo.o)
                              obj_srf06-cc26xx/res-device.o (NOROM_ChipInfo_GetSupportedProtocol_BV)
contiki-srf06-cc26xx.a(queuebuf.o)
                              contiki-srf06-cc26xx.a(contiki-main.o) (queuebuf_init)
contiki-srf06-cc26xx.a(nbr-table.o)
                              contiki-srf06-cc26xx.a(uip-ds6-route.o) (nbr_table_register)
contiki-srf06-cc26xx.a(packetbuf.o)
                              contiki-srf06-cc26xx.a(queuebuf.o) (packetbuf_copyto)
contiki-srf06-cc26xx.a(netstack.o)
                              contiki-srf06-cc26xx.a(contiki-main.o) (netstack_init)
contiki-srf06-cc26xx.a(linkaddr.o)
                              contiki-srf06-cc26xx.a(sicslowpan.o) (linkaddr_copy)
contiki-srf06-cc26xx.a(link-stats.o)
                              contiki-srf06-cc26xx.a(rpl-dag.o) (link_stats_from_lladdr)
contiki-srf06-cc26xx.a(framer-802154.o)
                              contiki-srf06-cc26xx.a(sicslowpan.o) (framer_802154)
contiki-srf06-cc26xx.a(frame802154.o)
                              contiki-srf06-cc26xx.a(framer-802154.o) (frame802154_get_pan_id)
contiki-srf06-cc26xx.a(csma.o)
                              contiki-srf06-cc26xx.a(contiki-main.o) (csma_driver)
contiki-srf06-cc26xx.a(contikimac.o)
                              contiki-srf06-cc26xx.a(contiki-main.o) (contikimac_driver)
contiki-srf06-cc26xx.a(nullsec.o)
                              contiki-srf06-cc26xx.a(sicslowpan.o) (nullsec_driver)
contiki-srf06-cc26xx.a(er-coap.o)
                              contiki-srf06-cc26xx.a(er-coap-engine.) (coap_init_connection)
contiki-srf06-cc26xx.a(sensor-common.o)
                              contiki-srf06-cc26xx.a(bmp-280-sensor.) (sensor_common_read_reg)
contiki-srf06-cc26xx.a(aux-ctrl.o)
                              contiki-srf06-cc26xx.a(lpm.o) (aux_ctrl_power_up)
contiki-srf06-cc26xx.a(rf-core.o)
                              contiki-srf06-cc26xx.a(rf-ble.o) (rf_core_is_accessible)
contiki-srf06-cc26xx.a(stimer.o)
                              contiki-srf06-cc26xx.a(uip-ds6.o) (stimer_set)
contiki-srf06-cc26xx.a(rpl-nbr-policy.)
                              contiki-srf06-cc26xx.a(nbr-table.o) (rpl_nbr_policy_find_removable)
contiki-srf06-cc26xx.a(setup_rom.o)
                              contiki-srf06-cc26xx.a(setup.o) (NOROM_SetupAfterColdResetWakeupFromShutDownCfg1)
contiki-srf06-cc26xx.a(mac-sequence.o)
                              contiki-srf06-cc26xx.a(contikimac.o) (mac_sequence_is_duplicate)
contiki-srf06-cc26xx.a(mac.o)
                              contiki-srf06-cc26xx.a(csma.o) (mac_call_sent_callback)
/usr/lib/gcc/arm-none-eabi/5.4.1/../../../arm-none-eabi/lib/armv7-m/libm.a(lib_a-w_exp2.o)
                              contiki-srf06-cc26xx.a(opt-3001-sensor) (exp2)
/usr/lib/gcc/arm-none-eabi/5.4.1/../../../arm-none-eabi/lib/armv7-m/libm.a(lib_a-w_pow.o)
                              /usr/lib/gcc/arm-none-eabi/5.4.1/../../../arm-none-eabi/lib/armv7-m/libm.a(lib_a-w_exp2.o) (pow)
/usr/lib/gcc/arm-none-eabi/5.4.1/../../../arm-none-eabi/lib/armv7-m/libm.a(lib_a-e_pow.o)
                              /usr/lib/gcc/arm-none-eabi/5.4.1/../../../arm-none-eabi/lib/armv7-m/libm.a(lib_a-w_pow.o) (__ieee754_pow)
/usr/lib/gcc/arm-none-eabi/5.4.1/../../../arm-none-eabi/lib/armv7-m/libm.a(lib_a-e_sqrt.o)
                              /usr/lib/gcc/arm-none-eabi/5.4.1/../../../arm-none-eabi/lib/armv7-m/libm.a(lib_a-e_pow.o) (__ieee754_sqrt)
/usr/lib/gcc/arm-none-eabi/5.4.1/../../../arm-none-eabi/lib/armv7-m/libm.a(lib_a-s_fabs.o)
                              /usr/lib/gcc/arm-none-eabi/5.4.1/../../../arm-none-eabi/lib/armv7-m/libm.a(lib_a-e_pow.o) (fabs)
/usr/lib/gcc/arm-none-eabi/5.4.1/../../../arm-none-eabi/lib/armv7-m/libm.a(lib_a-s_finite.o)
                              /usr/lib/gcc/arm-none-eabi/5.4.1/../../../arm-none-eabi/lib/armv7-m/libm.a(lib_a-w_pow.o) (finite)
/usr/lib/gcc/arm-none-eabi/5.4.1/../../../arm-none-eabi/lib/armv7-m/libm.a(lib_a-s_lib_ver.o)
                              /usr/lib/gcc/arm-none-eabi/5.4.1/../../../arm-none-eabi/lib/armv7-m/libm.a(lib_a-w_pow.o) (__fdlib_version)
/usr/lib/gcc/arm-none-eabi/5.4.1/../../../arm-none-eabi/lib/armv7-m/libm.a(lib_a-s_matherr.o)
                              /usr/lib/gcc/arm-none-eabi/5.4.1/../../../arm-none-eabi/lib/armv7-m/libm.a(lib_a-w_pow.o) (matherr)
/usr/lib/gcc/arm-none-eabi/5.4.1/../../../arm-none-eabi/lib/armv7-m/libm.a(lib_a-s_nan.o)
                              /usr/lib/gcc/arm-none-eabi/5.4.1/../../../arm-none-eabi/lib/armv7-m/libm.a(lib_a-e_pow.o) (nan)
/usr/lib/gcc/arm-none-eabi/5.4.1/../../../arm-none-eabi/lib/armv7-m/libm.a(lib_a-s_rint.o)
                              /usr/lib/gcc/arm-none-eabi/5.4.1/../../../arm-none-eabi/lib/armv7-m/libm.a(lib_a-w_pow.o) (rint)
/usr/lib/gcc/arm-none-eabi/5.4.1/../../../arm-none-eabi/lib/armv7-m/libm.a(lib_a-s_scalbn.o)
                              /usr/lib/gcc/arm-none-eabi/5.4.1/../../../arm-none-eabi/lib/armv7-m/libm.a(lib_a-e_pow.o) (scalbn)
/usr/lib/gcc/arm-none-eabi/5.4.1/../../../arm-none-eabi/lib/armv7-m/libm.a(lib_a-s_copysign.o)
                              /usr/lib/gcc/arm-none-eabi/5.4.1/../../../arm-none-eabi/lib/armv7-m/libm.a(lib_a-s_scalbn.o) (copysign)
/usr/lib/gcc/arm-none-eabi/5.4.1/armv7-m/libgcc.a(_arm_addsubdf3.o)
                              contiki-srf06-cc26xx.a(hdc-1000-sensor) (__aeabi_dsub)
/usr/lib/gcc/arm-none-eabi/5.4.1/armv7-m/libgcc.a(_arm_muldivdf3.o)
                              contiki-srf06-cc26xx.a(opt-3001-sensor) (__aeabi_dmul)
/usr/lib/gcc/arm-none-eabi/5.4.1/armv7-m/libgcc.a(_arm_cmpdf2.o)
                              /usr/lib/gcc/arm-none-eabi/5.4.1/../../../arm-none-eabi/lib/armv7-m/libm.a(lib_a-w_pow.o) (__aeabi_dcmpeq)
/usr/lib/gcc/arm-none-eabi/5.4.1/armv7-m/libgcc.a(_arm_unorddf2.o)
                              /usr/lib/gcc/arm-none-eabi/5.4.1/../../../arm-none-eabi/lib/armv7-m/libm.a(lib_a-w_pow.o) (__aeabi_dcmpun)
/usr/lib/gcc/arm-none-eabi/5.4.1/armv7-m/libgcc.a(_arm_truncdfsf2.o)
                              contiki-srf06-cc26xx.a(opt-3001-sensor) (__aeabi_d2f)
/usr/lib/gcc/arm-none-eabi/5.4.1/armv7-m/libgcc.a(_arm_addsubsf3.o)
                              contiki-srf06-cc26xx.a(tmp-007-sensor.) (__aeabi_i2f)
/usr/lib/gcc/arm-none-eabi/5.4.1/armv7-m/libgcc.a(_arm_muldivsf3.o)
                              contiki-srf06-cc26xx.a(tmp-007-sensor.) (__aeabi_fmul)
/usr/lib/gcc/arm-none-eabi/5.4.1/armv7-m/libgcc.a(_arm_fixsfsi.o)
                              contiki-srf06-cc26xx.a(tmp-007-sensor.) (__aeabi_f2iz)
/usr/lib/gcc/arm-none-eabi/5.4.1/armv7-m/libgcc.a(_aeabi_uldivmod.o)
                              contiki-srf06-cc26xx.a(ieee-mode.o) (__aeabi_uldivmod)
/usr/lib/gcc/arm-none-eabi/5.4.1/armv7-m/libgcc.a(_udivmoddi4.o)
                              /usr/lib/gcc/arm-none-eabi/5.4.1/armv7-m/libgcc.a(_aeabi_uldivmod.o) (__udivmoddi4)
/usr/lib/gcc/arm-none-eabi/5.4.1/armv7-m/libgcc.a(_dvmd_tls.o)
                              /usr/lib/gcc/arm-none-eabi/5.4.1/armv7-m/libgcc.a(_aeabi_uldivmod.o) (__aeabi_ldiv0)
/usr/lib/gcc/arm-none-eabi/5.4.1/../../../arm-none-eabi/lib/armv7-m/libc.a(lib_a-atoi.o)
                              cc26xx-web-demo.co (atoi)
/usr/lib/gcc/arm-none-eabi/5.4.1/../../../arm-none-eabi/lib/armv7-m/libc.a(lib_a-ctype_.o)
                              obj_srf06-cc26xx/httpd-simple.o (__ctype_ptr__)
/usr/lib/gcc/arm-none-eabi/5.4.1/../../../arm-none-eabi/lib/armv7-m/libc.a(lib_a-errno.o)
                              /usr/lib/gcc/arm-none-eabi/5.4.1/../../../arm-none-eabi/lib/armv7-m/libm.a(lib_a-w_pow.o) (__errno)
/usr/lib/gcc/arm-none-eabi/5.4.1/../../../arm-none-eabi/lib/armv7-m/libc.a(lib_a-impure.o)
                              /usr/lib/gcc/arm-none-eabi/5.4.1/../../../arm-none-eabi/lib/armv7-m/libc.a(lib_a-errno.o) (_impure_ptr)
/usr/lib/gcc/arm-none-eabi/5.4.1/../../../arm-none-eabi/lib/armv7-m/libc.a(lib_a-memchr-stub.o)
                              contiki-srf06-cc26xx.a(er-coap.o) (memchr)
/usr/lib/gcc/arm-none-eabi/5.4.1/../../../arm-none-eabi/lib/armv7-m/libc.a(lib_a-memcmp.o)
                              cc26xx-web-demo.co (memcmp)
/usr/lib/gcc/arm-none-eabi/5.4.1/../../../arm-none-eabi/lib/armv7-m/libc.a(lib_a-memcpy.o)
                              cc26xx-web-demo.co (memcpy)
/usr/lib/gcc/arm-none-eabi/5.4.1/../../../arm-none-eabi/lib/armv7-m/libc.a(lib_a-memmove.o)
                              contiki-srf06-cc26xx.a(uip-icmp6.o) (memmove)
/usr/lib/gcc/arm-none-eabi/5.4.1/../../../arm-none-eabi/lib/armv7-m/libc.a(lib_a-memset.o)
                              obj_srf06-cc26xx/res-ble-advd.o (memset)
/usr/lib/gcc/arm-none-eabi/5.4.1/../../../arm-none-eabi/lib/armv7-m/libc.a(lib_a-strchr.o)
                              contiki-srf06-cc26xx.a(er-coap.o) (strchr)
/usr/lib/gcc/arm-none-eabi/5.4.1/../../../arm-none-eabi/lib/armv7-m/libc.a(lib_a-strlen-stub.o)
                              cc26xx-web-demo.co (strlen)
/usr/lib/gcc/arm-none-eabi/5.4.1/../../../arm-none-eabi/lib/armv7-m/libc.a(lib_a-strncasecmp.o)
                              cc26xx-web-demo.co (strncasecmp)
/usr/lib/gcc/arm-none-eabi/5.4.1/../../../arm-none-eabi/lib/armv7-m/libc.a(lib_a-strncmp.o)
                              cc26xx-web-demo.co (strncmp)
/usr/lib/gcc/arm-none-eabi/5.4.1/../../../arm-none-eabi/lib/armv7-m/libc.a(lib_a-strncpy.o)
                              obj_srf06-cc26xx/httpd-simple.o (strncpy)
/usr/lib/gcc/arm-none-eabi/5.4.1/../../../arm-none-eabi/lib/armv7-m/libc.a(lib_a-strtol.o)
                              /usr/lib/gcc/arm-none-eabi/5.4.1/../../../arm-none-eabi/lib/armv7-m/libc.a(lib_a-atoi.o) (_strtol_r)

Allocating common symbols
Common symbol       size              file

uip_ds6_timer_ra    0x8               contiki-srf06-cc26xx.a(uip-ds6.o)
conf                0x4               obj_srf06-cc26xx/mqtt-client.o
uip_ds6_if          0xf8              contiki-srf06-cc26xx.a(uip-ds6.o)
uip_ds6_netif_addr_list_offset
                    0x1               contiki-srf06-cc26xx.a(uip-ds6.o)
uip_len             0x2               contiki-srf06-cc26xx.a(uip6.o)
cc26xx_web_demo_publish_event
                    0x1               cc26xx-web-demo.co
mqtt_update_event   0x1               contiki-srf06-cc26xx.a(mqtt.o)
uip_ds6_addr_size   0x1               contiki-srf06-cc26xx.a(uip-ds6.o)
uip_sappdata        0x4               contiki-srf06-cc26xx.a(uip6.o)
packetbuf_addrs     0x10              contiki-srf06-cc26xx.a(packetbuf.o)
uip_acc32           0x4               contiki-srf06-cc26xx.a(uip6.o)
uip_ds6_prefix_list
                    0x60              contiki-srf06-cc26xx.a(uip-ds6.o)
cc26xx_web_demo_config
                    0x124             cc26xx-web-demo.co
uip_lladdr          0x8               contiki-srf06-cc26xx.a(uip6.o)
uip_aligned_buf     0x384             contiki-srf06-cc26xx.a(uip6.o)
uip_flags           0x1               contiki-srf06-cc26xx.a(uip6.o)
tmp_timer           0x20              cc26xx-web-demo.co
periodic_timer      0x20              contiki-srf06-cc26xx.a(link-stats.o)
opt_timer           0x20              cc26xx-web-demo.co
uip_ds6_timer_periodic
                    0x10              contiki-srf06-cc26xx.a(uip-ds6.o)
uip_next_hdr        0x4               contiki-srf06-cc26xx.a(uip6.o)
linkaddr_node_addr  0x8               contiki-srf06-cc26xx.a(linkaddr.o)
default_instance    0x4               contiki-srf06-cc26xx.a(rpl-dag.o)
uip_udp_conn        0x4               contiki-srf06-cc26xx.a(uip6.o)
packetbuf_attrs     0x1e              contiki-srf06-cc26xx.a(packetbuf.o)
instance_table      0x154             contiki-srf06-cc26xx.a(rpl-dag.o)
uip_appdata         0x4               contiki-srf06-cc26xx.a(uip6.o)
uip_conn            0x4               contiki-srf06-cc26xx.a(uip6.o)
tcpip_event         0x1               contiki-srf06-cc26xx.a(tcpip.o)
uip_conns           0x1e0             contiki-srf06-cc26xx.a(uip6.o)
uip_icmp6_conns     0x8               contiki-srf06-cc26xx.a(uip6.o)
cc26xx_web_demo_config_loaded_event
                    0x1               cc26xx-web-demo.co
bmp_timer           0x20              cc26xx-web-demo.co
batmon_timer        0x20              cc26xx-web-demo.co
t0                  0x4               contiki-srf06-cc26xx.a(mpu-9250-sensor)
uip_listenports     0x28              contiki-srf06-cc26xx.a(uip6.o)
cc26xx_web_demo_load_config_defaults
                    0x1               cc26xx-web-demo.co
sensors_flags       0x9               contiki-srf06-cc26xx.a(sensortag-senso)
httpd_simple_event_new_config
                    0x1               obj_srf06-cc26xx/httpd-simple.o
serial_line_event_message
                    0x1               contiki-srf06-cc26xx.a(serial-line.o)
mpu_timer           0x20              cc26xx-web-demo.co
hdc_timer           0x20              cc26xx-web-demo.co
sensors_event       0x1               contiki-srf06-cc26xx.a(sensors.o)
tcpip_icmp6_event   0x1               contiki-srf06-cc26xx.a(tcpip.o)
uip_slen            0x2               contiki-srf06-cc26xx.a(uip6.o)
uip_udp_conns       0x140             contiki-srf06-cc26xx.a(uip6.o)

Discarded input sections

 .text          0x0000000000000000        0x0 obj_srf06-cc26xx/fault-handlers.o
 .data          0x0000000000000000        0x0 obj_srf06-cc26xx/fault-handlers.o
 .bss           0x0000000000000000        0x0 obj_srf06-cc26xx/fault-handlers.o
 .text          0x0000000000000000        0x0 obj_srf06-cc26xx/ccfg.o
 .data          0x0000000000000000        0x0 obj_srf06-cc26xx/ccfg.o
 .bss           0x0000000000000000        0x0 obj_srf06-cc26xx/ccfg.o
 .text          0x0000000000000000        0x0 obj_srf06-cc26xx/startup_gcc.o
 .data          0x0000000000000000        0x0 obj_srf06-cc26xx/startup_gcc.o
 .bss           0x0000000000000000        0x0 obj_srf06-cc26xx/startup_gcc.o
 .text.FaultISRHandler
                0x0000000000000000        0x4 obj_srf06-cc26xx/startup_gcc.o
 .text          0x0000000000000000        0x0 cc26xx-web-demo.co
 .data          0x0000000000000000        0x0 cc26xx-web-demo.co
 .bss           0x0000000000000000        0x0 cc26xx-web-demo.co
 .text          0x0000000000000000        0x0 obj_srf06-cc26xx/res-leds.o
 .data          0x0000000000000000        0x0 obj_srf06-cc26xx/res-leds.o
 .bss           0x0000000000000000        0x0 obj_srf06-cc26xx/res-leds.o
 .text          0x0000000000000000        0x0 obj_srf06-cc26xx/res-toggle-leds.o
 .data          0x0000000000000000        0x0 obj_srf06-cc26xx/res-toggle-leds.o
 .bss           0x0000000000000000        0x0 obj_srf06-cc26xx/res-toggle-leds.o
 .text          0x0000000000000000        0x0 obj_srf06-cc26xx/res-device.o
 .data          0x0000000000000000        0x0 obj_srf06-cc26xx/res-device.o
 .bss           0x0000000000000000        0x0 obj_srf06-cc26xx/res-device.o
 .text          0x0000000000000000        0x0 obj_srf06-cc26xx/res-sensors.o
 .data          0x0000000000000000        0x0 obj_srf06-cc26xx/res-sensors.o
 .bss           0x0000000000000000        0x0 obj_srf06-cc26xx/res-sensors.o
 .text          0x0000000000000000        0x0 obj_srf06-cc26xx/res-ble-advd.o
 .data          0x0000000000000000        0x0 obj_srf06-cc26xx/res-ble-advd.o
 .bss           0x0000000000000000        0x0 obj_srf06-cc26xx/res-ble-advd.o
 .text          0x0000000000000000        0x0 obj_srf06-cc26xx/res-net.o
 .data          0x0000000000000000        0x0 obj_srf06-cc26xx/res-net.o
 .bss           0x0000000000000000        0x0 obj_srf06-cc26xx/res-net.o
 .text          0x0000000000000000        0x0 obj_srf06-cc26xx/cetic-6lbr-client.o
 .data          0x0000000000000000        0x0 obj_srf06-cc26xx/cetic-6lbr-client.o
 .bss           0x0000000000000000        0x0 obj_srf06-cc26xx/cetic-6lbr-client.o
 .text          0x0000000000000000        0x0 obj_srf06-cc26xx/coap-server.o
 .data          0x0000000000000000        0x0 obj_srf06-cc26xx/coap-server.o
 .bss           0x0000000000000000        0x0 obj_srf06-cc26xx/coap-server.o
 .text          0x0000000000000000        0x0 obj_srf06-cc26xx/net-uart.o
 .data          0x0000000000000000        0x0 obj_srf06-cc26xx/net-uart.o
 .bss           0x0000000000000000        0x0 obj_srf06-cc26xx/net-uart.o
 .text          0x0000000000000000        0x0 obj_srf06-cc26xx/mqtt-client.o
 .data          0x0000000000000000        0x0 obj_srf06-cc26xx/mqtt-client.o
 .bss           0x0000000000000000        0x0 obj_srf06-cc26xx/mqtt-client.o
 .text          0x0000000000000000        0x0 obj_srf06-cc26xx/httpd-simple.o
 .data          0x0000000000000000        0x0 obj_srf06-cc26xx/httpd-simple.o
 .bss           0x0000000000000000        0x0 obj_srf06-cc26xx/httpd-simple.o
 .text          0x0000000000000000        0x0 contiki-srf06-cc26xx.a(er-coap-engine.)
 .data          0x0000000000000000        0x0 contiki-srf06-cc26xx.a(er-coap-engine.)
 .bss           0x0000000000000000        0x0 contiki-srf06-cc26xx.a(er-coap-engine.)
 .text.coap_blocking_request_callback
                0x0000000000000000        0x8 contiki-srf06-cc26xx.a(er-coap-engine.)
 .text.coap_blocking_request
                0x0000000000000000       0xf0 contiki-srf06-cc26xx.a(er-coap-engine.)
 .bss.more.8480
                0x0000000000000000        0x1 contiki-srf06-cc26xx.a(er-coap-engine.)
 .bss.res_block.8481
                0x0000000000000000        0x4 contiki-srf06-cc26xx.a(er-coap-engine.)
 .bss.block_error.8482
                0x0000000000000000        0x1 contiki-srf06-cc26xx.a(er-coap-engine.)
 .text          0x0000000000000000        0x0 contiki-srf06-cc26xx.a(er-coap-transac)
 .data          0x0000000000000000        0x0 contiki-srf06-cc26xx.a(er-coap-transac)
 .bss           0x0000000000000000        0x0 contiki-srf06-cc26xx.a(er-coap-transac)
 .text          0x0000000000000000        0x0 contiki-srf06-cc26xx.a(er-coap-observe)
 .data          0x0000000000000000        0x0 contiki-srf06-cc26xx.a(er-coap-observe)
 .bss           0x0000000000000000        0x0 contiki-srf06-cc26xx.a(er-coap-observe)
 .text          0x0000000000000000        0x0 contiki-srf06-cc26xx.a(er-coap-res-wel)
 .data          0x0000000000000000        0x0 contiki-srf06-cc26xx.a(er-coap-res-wel)
 .bss           0x0000000000000000        0x0 contiki-srf06-cc26xx.a(er-coap-res-wel)
 .text          0x0000000000000000        0x0 contiki-srf06-cc26xx.a(rest-engine.o)
 .data          0x0000000000000000        0x0 contiki-srf06-cc26xx.a(rest-engine.o)
 .bss           0x0000000000000000        0x0 contiki-srf06-cc26xx.a(rest-engine.o)
 .text          0x0000000000000000        0x0 contiki-srf06-cc26xx.a(mqtt.o)
 .data          0x0000000000000000        0x0 contiki-srf06-cc26xx.a(mqtt.o)
 .bss           0x0000000000000000        0x0 contiki-srf06-cc26xx.a(mqtt.o)
 .text.mqtt_init
                0x0000000000000000       0x10 contiki-srf06-cc26xx.a(mqtt.o)
 .text.mqtt_unsubscribe
                0x0000000000000000       0x5c contiki-srf06-cc26xx.a(mqtt.o)
 .text.mqtt_set_last_will
                0x0000000000000000       0x54 contiki-srf06-cc26xx.a(mqtt.o)
 .text          0x0000000000000000        0x0 contiki-srf06-cc26xx.a(contiki-main.o)
 .data          0x0000000000000000        0x0 contiki-srf06-cc26xx.a(contiki-main.o)
 .bss           0x0000000000000000        0x0 contiki-srf06-cc26xx.a(contiki-main.o)
 .text          0x0000000000000000        0x0 contiki-srf06-cc26xx.a(sensors.o)
 .data          0x0000000000000000        0x0 contiki-srf06-cc26xx.a(sensors.o)
 .bss           0x0000000000000000        0x0 contiki-srf06-cc26xx.a(sensors.o)
 .text.sensors_first
                0x0000000000000000        0xc contiki-srf06-cc26xx.a(sensors.o)
 .text.sensors_next
                0x0000000000000000       0x4c contiki-srf06-cc26xx.a(sensors.o)
 .text.sensors_find
                0x0000000000000000       0x50 contiki-srf06-cc26xx.a(sensors.o)
 .text          0x0000000000000000        0x0 contiki-srf06-cc26xx.a(leds.o)
 .data          0x0000000000000000        0x0 contiki-srf06-cc26xx.a(leds.o)
 .bss           0x0000000000000000        0x0 contiki-srf06-cc26xx.a(leds.o)
 .text.leds_blink
                0x0000000000000000       0x30 contiki-srf06-cc26xx.a(leds.o)
 .text.leds_get
                0x0000000000000000        0x4 contiki-srf06-cc26xx.a(leds.o)
 .text.leds_set
                0x0000000000000000        0xc contiki-srf06-cc26xx.a(leds.o)
 .text          0x0000000000000000        0x0 contiki-srf06-cc26xx.a(leds-arch.o)
 .data          0x0000000000000000        0x0 contiki-srf06-cc26xx.a(leds-arch.o)
 .bss           0x0000000000000000        0x0 contiki-srf06-cc26xx.a(leds-arch.o)
 .text.leds_arch_get
                0x0000000000000000        0xc contiki-srf06-cc26xx.a(leds-arch.o)
 .text          0x0000000000000000        0x0 contiki-srf06-cc26xx.a(sensortag-senso)
 .data          0x0000000000000000        0x0 contiki-srf06-cc26xx.a(sensortag-senso)
 .bss           0x0000000000000000        0x0 contiki-srf06-cc26xx.a(sensortag-senso)
 .text          0x0000000000000000        0x0 contiki-srf06-cc26xx.a(bmp-280-sensor.)
 .data          0x0000000000000000        0x0 contiki-srf06-cc26xx.a(bmp-280-sensor.)
 .bss           0x0000000000000000        0x0 contiki-srf06-cc26xx.a(bmp-280-sensor.)
 .text          0x0000000000000000        0x0 contiki-srf06-cc26xx.a(tmp-007-sensor.)
 .data          0x0000000000000000        0x0 contiki-srf06-cc26xx.a(tmp-007-sensor.)
 .bss           0x0000000000000000        0x0 contiki-srf06-cc26xx.a(tmp-007-sensor.)
 .text          0x0000000000000000        0x0 contiki-srf06-cc26xx.a(opt-3001-sensor)
 .data          0x0000000000000000        0x0 contiki-srf06-cc26xx.a(opt-3001-sensor)
 .bss           0x0000000000000000        0x0 contiki-srf06-cc26xx.a(opt-3001-sensor)
 .text          0x0000000000000000        0x0 contiki-srf06-cc26xx.a(hdc-1000-sensor)
 .data          0x0000000000000000        0x0 contiki-srf06-cc26xx.a(hdc-1000-sensor)
 .bss           0x0000000000000000        0x0 contiki-srf06-cc26xx.a(hdc-1000-sensor)
 .text          0x0000000000000000        0x0 contiki-srf06-cc26xx.a(mpu-9250-sensor)
 .data          0x0000000000000000        0x0 contiki-srf06-cc26xx.a(mpu-9250-sensor)
 .bss           0x0000000000000000        0x0 contiki-srf06-cc26xx.a(mpu-9250-sensor)
 .text          0x0000000000000000        0x0 contiki-srf06-cc26xx.a(button-sensor.o)
 .data          0x0000000000000000        0x0 contiki-srf06-cc26xx.a(button-sensor.o)
 .bss           0x0000000000000000        0x0 contiki-srf06-cc26xx.a(button-sensor.o)
 .text          0x0000000000000000        0x0 contiki-srf06-cc26xx.a(reed-relay.o)
 .data          0x0000000000000000        0x0 contiki-srf06-cc26xx.a(reed-relay.o)
 .bss           0x0000000000000000        0x0 contiki-srf06-cc26xx.a(reed-relay.o)
 .text          0x0000000000000000        0x0 contiki-srf06-cc26xx.a(ext-flash.o)
 .data          0x0000000000000000        0x0 contiki-srf06-cc26xx.a(ext-flash.o)
 .bss           0x0000000000000000        0x0 contiki-srf06-cc26xx.a(ext-flash.o)
 .text.ext_flash_test
                0x0000000000000000       0x14 contiki-srf06-cc26xx.a(ext-flash.o)
 .text          0x0000000000000000        0x0 contiki-srf06-cc26xx.a(buzzer.o)
 .data          0x0000000000000000        0x0 contiki-srf06-cc26xx.a(buzzer.o)
 .bss           0x0000000000000000        0x0 contiki-srf06-cc26xx.a(buzzer.o)
 .text.buzzer_state
                0x0000000000000000        0xc contiki-srf06-cc26xx.a(buzzer.o)
 .text          0x0000000000000000        0x0 contiki-srf06-cc26xx.a(board.o)
 .data          0x0000000000000000        0x0 contiki-srf06-cc26xx.a(board.o)
 .bss           0x0000000000000000        0x0 contiki-srf06-cc26xx.a(board.o)
 .text          0x0000000000000000        0x0 contiki-srf06-cc26xx.a(board-spi.o)
 .data          0x0000000000000000        0x0 contiki-srf06-cc26xx.a(board-spi.o)
 .bss           0x0000000000000000        0x0 contiki-srf06-cc26xx.a(board-spi.o)
 .text          0x0000000000000000        0x0 contiki-srf06-cc26xx.a(board-i2c.o)
 .data          0x0000000000000000        0x0 contiki-srf06-cc26xx.a(board-i2c.o)
 .bss           0x0000000000000000        0x0 contiki-srf06-cc26xx.a(board-i2c.o)
 .text          0x0000000000000000        0x0 contiki-srf06-cc26xx.a(clock.o)
 .data          0x0000000000000000        0x0 contiki-srf06-cc26xx.a(clock.o)
 .bss           0x0000000000000000        0x0 contiki-srf06-cc26xx.a(clock.o)
 .text.clock_wait
                0x0000000000000000       0x58 contiki-srf06-cc26xx.a(clock.o)
 .text.clock_delay_usec
                0x0000000000000000       0x84 contiki-srf06-cc26xx.a(clock.o)
 .text.clock_delay
                0x0000000000000000        0x8 contiki-srf06-cc26xx.a(clock.o)
 .text          0x0000000000000000        0x0 contiki-srf06-cc26xx.a(rtimer-arch.o)
 .data          0x0000000000000000        0x0 contiki-srf06-cc26xx.a(rtimer-arch.o)
 .bss           0x0000000000000000        0x0 contiki-srf06-cc26xx.a(rtimer-arch.o)
 .text          0x0000000000000000        0x0 contiki-srf06-cc26xx.a(soc-rtc.o)
 .data          0x0000000000000000        0x0 contiki-srf06-cc26xx.a(soc-rtc.o)
 .bss           0x0000000000000000        0x0 contiki-srf06-cc26xx.a(soc-rtc.o)
 .text.soc_rtc_get_next_trigger
                0x0000000000000000       0x28 contiki-srf06-cc26xx.a(soc-rtc.o)
 .text          0x0000000000000000        0x0 contiki-srf06-cc26xx.a(contiki-watchdo)
 .data          0x0000000000000000        0x0 contiki-srf06-cc26xx.a(contiki-watchdo)
 .bss           0x0000000000000000        0x0 contiki-srf06-cc26xx.a(contiki-watchdo)
 .text.watchdog_stop
                0x0000000000000000       0x4c contiki-srf06-cc26xx.a(contiki-watchdo)
 .text.watchdog_reboot
                0x0000000000000000        0x8 contiki-srf06-cc26xx.a(contiki-watchdo)
 .text          0x0000000000000000        0x0 contiki-srf06-cc26xx.a(putchar.o)
 .data          0x0000000000000000        0x0 contiki-srf06-cc26xx.a(putchar.o)
 .bss           0x0000000000000000        0x0 contiki-srf06-cc26xx.a(putchar.o)
 .text          0x0000000000000000        0x0 contiki-srf06-cc26xx.a(ieee-addr.o)
 .data          0x0000000000000000        0x0 contiki-srf06-cc26xx.a(ieee-addr.o)
 .bss           0x0000000000000000        0x0 contiki-srf06-cc26xx.a(ieee-addr.o)
 .text          0x0000000000000000        0x0 contiki-srf06-cc26xx.a(batmon-sensor.o)
 .data          0x0000000000000000        0x0 contiki-srf06-cc26xx.a(batmon-sensor.o)
 .bss           0x0000000000000000        0x0 contiki-srf06-cc26xx.a(batmon-sensor.o)
 .text          0x0000000000000000        0x0 contiki-srf06-cc26xx.a(cc26xx-uart.o)
 .data          0x0000000000000000        0x0 contiki-srf06-cc26xx.a(cc26xx-uart.o)
 .bss           0x0000000000000000        0x0 contiki-srf06-cc26xx.a(cc26xx-uart.o)
 .text          0x0000000000000000        0x0 contiki-srf06-cc26xx.a(lpm.o)
 .data          0x0000000000000000        0x0 contiki-srf06-cc26xx.a(lpm.o)
 .bss           0x0000000000000000        0x0 contiki-srf06-cc26xx.a(lpm.o)
 .text          0x0000000000000000        0x0 contiki-srf06-cc26xx.a(gpio-interrupt.)
 .data          0x0000000000000000        0x0 contiki-srf06-cc26xx.a(gpio-interrupt.)
 .bss           0x0000000000000000        0x0 contiki-srf06-cc26xx.a(gpio-interrupt.)
 .text          0x0000000000000000        0x0 contiki-srf06-cc26xx.a(oscillators.o)
 .data          0x0000000000000000        0x0 contiki-srf06-cc26xx.a(oscillators.o)
 .bss           0x0000000000000000        0x0 contiki-srf06-cc26xx.a(oscillators.o)
 .text          0x0000000000000000        0x0 contiki-srf06-cc26xx.a(rf-ble.o)
 .data          0x0000000000000000        0x0 contiki-srf06-cc26xx.a(rf-ble.o)
 .bss           0x0000000000000000        0x0 contiki-srf06-cc26xx.a(rf-ble.o)
 .text          0x0000000000000000        0x0 contiki-srf06-cc26xx.a(ieee-mode.o)
 .data          0x0000000000000000        0x0 contiki-srf06-cc26xx.a(ieee-mode.o)
 .bss           0x0000000000000000        0x0 contiki-srf06-cc26xx.a(ieee-mode.o)
 .text          0x0000000000000000        0x0 contiki-srf06-cc26xx.a(random.o)
 .data          0x0000000000000000        0x0 contiki-srf06-cc26xx.a(random.o)
 .bss           0x0000000000000000        0x0 contiki-srf06-cc26xx.a(random.o)
 .text          0x0000000000000000        0x0 contiki-srf06-cc26xx.a(soc-trng.o)
 .data          0x0000000000000000        0x0 contiki-srf06-cc26xx.a(soc-trng.o)
 .bss           0x0000000000000000        0x0 contiki-srf06-cc26xx.a(soc-trng.o)
 .text.soc_trng_rand_asynchronous
                0x0000000000000000      0x13c contiki-srf06-cc26xx.a(soc-trng.o)
 .text          0x0000000000000000        0x0 contiki-srf06-cc26xx.a(dbg-printf.o)
 .data          0x0000000000000000        0x0 contiki-srf06-cc26xx.a(dbg-printf.o)
 .bss           0x0000000000000000        0x0 contiki-srf06-cc26xx.a(dbg-printf.o)
 .text          0x0000000000000000        0x0 contiki-srf06-cc26xx.a(dbg-snprintf.o)
 .data          0x0000000000000000        0x0 contiki-srf06-cc26xx.a(dbg-snprintf.o)
 .bss           0x0000000000000000        0x0 contiki-srf06-cc26xx.a(dbg-snprintf.o)
 .text          0x0000000000000000        0x0 contiki-srf06-cc26xx.a(dbg-sprintf.o)
 .data          0x0000000000000000        0x0 contiki-srf06-cc26xx.a(dbg-sprintf.o)
 .bss           0x0000000000000000        0x0 contiki-srf06-cc26xx.a(dbg-sprintf.o)
 .text          0x0000000000000000        0x0 contiki-srf06-cc26xx.a(strformat.o)
 .data          0x0000000000000000        0x0 contiki-srf06-cc26xx.a(strformat.o)
 .bss           0x0000000000000000        0x0 contiki-srf06-cc26xx.a(strformat.o)
 .text.format_str
                0x0000000000000000       0x20 contiki-srf06-cc26xx.a(strformat.o)
 .text          0x0000000000000000        0x0 contiki-srf06-cc26xx.a(autostart.o)
 .data          0x0000000000000000        0x0 contiki-srf06-cc26xx.a(autostart.o)
 .bss           0x0000000000000000        0x0 contiki-srf06-cc26xx.a(autostart.o)
 .text.autostart_exit
                0x0000000000000000       0x18 contiki-srf06-cc26xx.a(autostart.o)
 .text          0x0000000000000000        0x0 contiki-srf06-cc26xx.a(energest.o)
 .data          0x0000000000000000        0x0 contiki-srf06-cc26xx.a(energest.o)
 .bss           0x0000000000000000        0x0 contiki-srf06-cc26xx.a(energest.o)
 .text.energest_type_set
                0x0000000000000000        0x4 contiki-srf06-cc26xx.a(energest.o)
 .text.energest_type_time
                0x0000000000000000        0x4 contiki-srf06-cc26xx.a(energest.o)
 .text.energest_flush
                0x0000000000000000        0x4 contiki-srf06-cc26xx.a(energest.o)
 .text          0x0000000000000000        0x0 contiki-srf06-cc26xx.a(etimer.o)
 .data          0x0000000000000000        0x0 contiki-srf06-cc26xx.a(etimer.o)
 .bss           0x0000000000000000        0x0 contiki-srf06-cc26xx.a(etimer.o)
 .text.etimer_reset_with_new_interval
                0x0000000000000000       0x18 contiki-srf06-cc26xx.a(etimer.o)
 .text.etimer_adjust
                0x0000000000000000        0xc contiki-srf06-cc26xx.a(etimer.o)
 .text.etimer_start_time
                0x0000000000000000        0x4 contiki-srf06-cc26xx.a(etimer.o)
 .text          0x0000000000000000        0x0 contiki-srf06-cc26xx.a(ctimer.o)
 .data          0x0000000000000000        0x0 contiki-srf06-cc26xx.a(ctimer.o)
 .bss           0x0000000000000000        0x0 contiki-srf06-cc26xx.a(ctimer.o)
 .text.ctimer_expired
                0x0000000000000000       0x40 contiki-srf06-cc26xx.a(ctimer.o)
 .text          0x0000000000000000        0x0 contiki-srf06-cc26xx.a(process.o)
 .data          0x0000000000000000        0x0 contiki-srf06-cc26xx.a(process.o)
 .bss           0x0000000000000000        0x0 contiki-srf06-cc26xx.a(process.o)
 .text          0x0000000000000000        0x0 contiki-srf06-cc26xx.a(rtimer.o)
 .data          0x0000000000000000        0x0 contiki-srf06-cc26xx.a(rtimer.o)
 .bss           0x0000000000000000        0x0 contiki-srf06-cc26xx.a(rtimer.o)
 .text          0x0000000000000000        0x0 contiki-srf06-cc26xx.a(timer.o)
 .data          0x0000000000000000        0x0 contiki-srf06-cc26xx.a(timer.o)
 .bss           0x0000000000000000        0x0 contiki-srf06-cc26xx.a(timer.o)
 .text.timer_remaining
                0x0000000000000000       0x10 contiki-srf06-cc26xx.a(timer.o)
 .text          0x0000000000000000        0x0 contiki-srf06-cc26xx.a(serial-line.o)
 .data          0x0000000000000000        0x0 contiki-srf06-cc26xx.a(serial-line.o)
 .bss           0x0000000000000000        0x0 contiki-srf06-cc26xx.a(serial-line.o)
 .text          0x0000000000000000        0x0 contiki-srf06-cc26xx.a(ringbuf.o)
 .data          0x0000000000000000        0x0 contiki-srf06-cc26xx.a(ringbuf.o)
 .bss           0x0000000000000000        0x0 contiki-srf06-cc26xx.a(ringbuf.o)
 .text.ringbuf_size
                0x0000000000000000        0x8 contiki-srf06-cc26xx.a(ringbuf.o)
 .text.ringbuf_elements
                0x0000000000000000        0xc contiki-srf06-cc26xx.a(ringbuf.o)
 .text          0x0000000000000000        0x0 contiki-srf06-cc26xx.a(list.o)
 .data          0x0000000000000000        0x0 contiki-srf06-cc26xx.a(list.o)
 .bss           0x0000000000000000        0x0 contiki-srf06-cc26xx.a(list.o)
 .text.list_copy
                0x0000000000000000        0x8 contiki-srf06-cc26xx.a(list.o)
 .text.list_tail
                0x0000000000000000       0x14 contiki-srf06-cc26xx.a(list.o)
 .text.list_chop
                0x0000000000000000       0x24 contiki-srf06-cc26xx.a(list.o)
 .text.list_pop
                0x0000000000000000        0xc contiki-srf06-cc26xx.a(list.o)
 .text.list_insert
                0x0000000000000000       0x4c contiki-srf06-cc26xx.a(list.o)
 .text          0x0000000000000000        0x0 contiki-srf06-cc26xx.a(memb.o)
 .data          0x0000000000000000        0x0 contiki-srf06-cc26xx.a(memb.o)
 .bss           0x0000000000000000        0x0 contiki-srf06-cc26xx.a(memb.o)
 .text          0x0000000000000000        0x0 contiki-srf06-cc26xx.a(uip-icmp6.o)
 .data          0x0000000000000000        0x0 contiki-srf06-cc26xx.a(uip-icmp6.o)
 .bss           0x0000000000000000        0x0 contiki-srf06-cc26xx.a(uip-icmp6.o)
 .text.uip_icmp6_echo_reply_callback_rm
                0x0000000000000000        0xc contiki-srf06-cc26xx.a(uip-icmp6.o)
 .text          0x0000000000000000        0x0 contiki-srf06-cc26xx.a(uip-ds6.o)
 .data          0x0000000000000000        0x0 contiki-srf06-cc26xx.a(uip-ds6.o)
 .bss           0x0000000000000000        0x0 contiki-srf06-cc26xx.a(uip-ds6.o)
 .text.uip_ds6_prefix_rm
                0x0000000000000000        0x8 contiki-srf06-cc26xx.a(uip-ds6.o)
 .text.uip_ds6_prefix_lookup
                0x0000000000000000       0x2c contiki-srf06-cc26xx.a(uip-ds6.o)
 .text.uip_ds6_maddr_rm
                0x0000000000000000        0x8 contiki-srf06-cc26xx.a(uip-ds6.o)
 .text.uip_ds6_aaddr_add
                0x0000000000000000       0x50 contiki-srf06-cc26xx.a(uip-ds6.o)
 .text.uip_ds6_aaddr_rm
                0x0000000000000000        0x8 contiki-srf06-cc26xx.a(uip-ds6.o)
 .text.uip_ds6_aaddr_lookup
                0x0000000000000000       0x30 contiki-srf06-cc26xx.a(uip-ds6.o)
 .text.get_match_length
                0x0000000000000000       0x44 contiki-srf06-cc26xx.a(uip-ds6.o)
 .bss.locaaddr  0x0000000000000000        0x4 contiki-srf06-cc26xx.a(uip-ds6.o)
 .text          0x0000000000000000        0x0 contiki-srf06-cc26xx.a(uip-ds6-route.o)
 .data          0x0000000000000000        0x0 contiki-srf06-cc26xx.a(uip-ds6-route.o)
 .bss           0x0000000000000000        0x0 contiki-srf06-cc26xx.a(uip-ds6-route.o)
 .text.uip_ds6_notification_add
                0x0000000000000000       0x14 contiki-srf06-cc26xx.a(uip-ds6-route.o)
 .text.uip_ds6_notification_rm
                0x0000000000000000        0xc contiki-srf06-cc26xx.a(uip-ds6-route.o)
 .text.uip_ds6_route_num_routes
                0x0000000000000000        0xc contiki-srf06-cc26xx.a(uip-ds6-route.o)
 .text.uip_ds6_route_rm_by_nexthop
                0x0000000000000000       0x1c contiki-srf06-cc26xx.a(uip-ds6-route.o)
 .text.uip_ds6_defrt_head
                0x0000000000000000        0xc contiki-srf06-cc26xx.a(uip-ds6-route.o)
 .text          0x0000000000000000        0x0 contiki-srf06-cc26xx.a(uip6.o)
 .data          0x0000000000000000        0x0 contiki-srf06-cc26xx.a(uip6.o)
 .bss           0x0000000000000000        0x0 contiki-srf06-cc26xx.a(uip6.o)
 .text.uip_chksum
                0x0000000000000000       0x14 contiki-srf06-cc26xx.a(uip6.o)
 .text.uip_ipchksum
                0x0000000000000000       0x48 contiki-srf06-cc26xx.a(uip6.o)
 .text.uip_tcpchksum
                0x0000000000000000        0x8 contiki-srf06-cc26xx.a(uip6.o)
 .text.uip_udpchksum
                0x0000000000000000        0x8 contiki-srf06-cc26xx.a(uip6.o)
 .text          0x0000000000000000        0x0 contiki-srf06-cc26xx.a(uip-ds6-nbr.o)
 .data          0x0000000000000000        0x0 contiki-srf06-cc26xx.a(uip-ds6-nbr.o)
 .bss           0x0000000000000000        0x0 contiki-srf06-cc26xx.a(uip-ds6-nbr.o)
 .text.uip_ds6_nbr_get_ipaddr
                0x0000000000000000        0x4 contiki-srf06-cc26xx.a(uip-ds6-nbr.o)
 .text.uip_ds6_nbr_num
                0x0000000000000000       0x28 contiki-srf06-cc26xx.a(uip-ds6-nbr.o)
 .text.uip_ds6_nbr_ll_lookup
                0x0000000000000000       0x10 contiki-srf06-cc26xx.a(uip-ds6-nbr.o)
 .text          0x0000000000000000        0x0 contiki-srf06-cc26xx.a(uip-nd6.o)
 .data          0x0000000000000000        0x0 contiki-srf06-cc26xx.a(uip-nd6.o)
 .bss           0x0000000000000000        0x0 contiki-srf06-cc26xx.a(uip-nd6.o)
 .text          0x0000000000000000        0x0 contiki-srf06-cc26xx.a(sicslowpan.o)
 .data          0x0000000000000000        0x0 contiki-srf06-cc26xx.a(sicslowpan.o)
 .bss           0x0000000000000000        0x0 contiki-srf06-cc26xx.a(sicslowpan.o)
 .text.rime_sniffer_add
                0x0000000000000000        0xc contiki-srf06-cc26xx.a(sicslowpan.o)
 .text.rime_sniffer_remove
                0x0000000000000000        0xc contiki-srf06-cc26xx.a(sicslowpan.o)
 .text          0x0000000000000000        0x0 contiki-srf06-cc26xx.a(uip-debug.o)
 .data          0x0000000000000000        0x0 contiki-srf06-cc26xx.a(uip-debug.o)
 .bss           0x0000000000000000        0x0 contiki-srf06-cc26xx.a(uip-debug.o)
 .text          0x0000000000000000        0x0 contiki-srf06-cc26xx.a(tcp-socket.o)
 .data          0x0000000000000000        0x0 contiki-srf06-cc26xx.a(tcp-socket.o)
 .bss           0x0000000000000000        0x0 contiki-srf06-cc26xx.a(tcp-socket.o)
 .text.tcp_socket_listen
                0x0000000000000000       0x3c contiki-srf06-cc26xx.a(tcp-socket.o)
 .text.tcp_socket_send_str
                0x0000000000000000       0x1c contiki-srf06-cc26xx.a(tcp-socket.o)
 .text.tcp_socket_max_sendlen
                0x0000000000000000        0x8 contiki-srf06-cc26xx.a(tcp-socket.o)
 .text.tcp_socket_queuelen
                0x0000000000000000        0x4 contiki-srf06-cc26xx.a(tcp-socket.o)
 .text          0x0000000000000000        0x0 contiki-srf06-cc26xx.a(uiplib.o)
 .data          0x0000000000000000        0x0 contiki-srf06-cc26xx.a(uiplib.o)
 .bss           0x0000000000000000        0x0 contiki-srf06-cc26xx.a(uiplib.o)
 .text.uiplib_ip4addrconv
                0x0000000000000000       0x60 contiki-srf06-cc26xx.a(uiplib.o)
 .text          0x0000000000000000        0x0 contiki-srf06-cc26xx.a(uip-udp-packet.)
 .data          0x0000000000000000        0x0 contiki-srf06-cc26xx.a(uip-udp-packet.)
 .bss           0x0000000000000000        0x0 contiki-srf06-cc26xx.a(uip-udp-packet.)
 .text          0x0000000000000000        0x0 contiki-srf06-cc26xx.a(psock.o)
 .data          0x0000000000000000        0x0 contiki-srf06-cc26xx.a(psock.o)
 .bss           0x0000000000000000        0x0 contiki-srf06-cc26xx.a(psock.o)
 .text.psock_generator_send
                0x0000000000000000       0x6c contiki-srf06-cc26xx.a(psock.o)
 .text.psock_newdata
                0x0000000000000000       0x2c contiki-srf06-cc26xx.a(psock.o)
 .text          0x0000000000000000        0x0 contiki-srf06-cc26xx.a(tcpip.o)
 .data          0x0000000000000000        0x0 contiki-srf06-cc26xx.a(tcpip.o)
 .bss           0x0000000000000000        0x0 contiki-srf06-cc26xx.a(tcpip.o)
 .text.tcpip_output
                0x0000000000000000       0x10 contiki-srf06-cc26xx.a(tcpip.o)
 .text.udp_attach
                0x0000000000000000       0x10 contiki-srf06-cc26xx.a(tcpip.o)
 .text.udp_broadcast_new
                0x0000000000000000       0x50 contiki-srf06-cc26xx.a(tcpip.o)
 .text.icmp6_new
                0x0000000000000000       0x20 contiki-srf06-cc26xx.a(tcpip.o)
 .text.tcpip_poll_udp
                0x0000000000000000       0x10 contiki-srf06-cc26xx.a(tcpip.o)
 .text          0x0000000000000000        0x0 contiki-srf06-cc26xx.a(rpl-dag.o)
 .data          0x0000000000000000        0x0 contiki-srf06-cc26xx.a(rpl-dag.o)
 .bss           0x0000000000000000        0x0 contiki-srf06-cc26xx.a(rpl-dag.o)
 .text.rpl_get_nbr
                0x0000000000000000       0x28 contiki-srf06-cc26xx.a(rpl-dag.o)
 .text.rpl_get_parent_rank
                0x0000000000000000       0x1c contiki-srf06-cc26xx.a(rpl-dag.o)
 .text.rpl_get_parent_link_metric
                0x0000000000000000       0x1c contiki-srf06-cc26xx.a(rpl-dag.o)
 .text.rpl_get_parent_lladdr
                0x0000000000000000       0x10 contiki-srf06-cc26xx.a(rpl-dag.o)
 .text.rpl_print_neighbor_list
                0x0000000000000000      0x10c contiki-srf06-cc26xx.a(rpl-dag.o)
 .text.rpl_set_default_instance
                0x0000000000000000        0xc contiki-srf06-cc26xx.a(rpl-dag.o)
 .text.rpl_get_default_instance
                0x0000000000000000        0xc contiki-srf06-cc26xx.a(rpl-dag.o)
 .text.rpl_free_instance
                0x0000000000000000       0x74 contiki-srf06-cc26xx.a(rpl-dag.o)
 .text.rpl_set_root
                0x0000000000000000      0x130 contiki-srf06-cc26xx.a(rpl-dag.o)
 .text.rpl_has_downward_route
                0x0000000000000000       0x18 contiki-srf06-cc26xx.a(rpl-dag.o)
 .text.rpl_find_of
                0x0000000000000000       0x14 contiki-srf06-cc26xx.a(rpl-dag.o)
 .rodata.str1.4
                0x0000000000000000       0x87 contiki-srf06-cc26xx.a(rpl-dag.o)
 .text          0x0000000000000000        0x0 contiki-srf06-cc26xx.a(rpl-timers.o)
 .data          0x0000000000000000        0x0 contiki-srf06-cc26xx.a(rpl-timers.o)
 .bss           0x0000000000000000        0x0 contiki-srf06-cc26xx.a(rpl-timers.o)
 .text.rpl_schedule_dao_immediately
                0x0000000000000000        0x8 contiki-srf06-cc26xx.a(rpl-timers.o)
 .text.rpl_cancel_dao
                0x0000000000000000       0x18 contiki-srf06-cc26xx.a(rpl-timers.o)
 .text          0x0000000000000000        0x0 contiki-srf06-cc26xx.a(rpl-ext-header.)
 .data          0x0000000000000000        0x0 contiki-srf06-cc26xx.a(rpl-ext-header.)
 .bss           0x0000000000000000        0x0 contiki-srf06-cc26xx.a(rpl-ext-header.)
 .text          0x0000000000000000        0x0 contiki-srf06-cc26xx.a(rpl.o)
 .data          0x0000000000000000        0x0 contiki-srf06-cc26xx.a(rpl.o)
 .bss           0x0000000000000000        0x0 contiki-srf06-cc26xx.a(rpl.o)
 .text.rpl_set_mode
                0x0000000000000000       0x4c contiki-srf06-cc26xx.a(rpl.o)
 .text          0x0000000000000000        0x0 contiki-srf06-cc26xx.a(rpl-mrhof.o)
 .data          0x0000000000000000        0x0 contiki-srf06-cc26xx.a(rpl-mrhof.o)
 .bss           0x0000000000000000        0x0 contiki-srf06-cc26xx.a(rpl-mrhof.o)
 .text          0x0000000000000000        0x0 contiki-srf06-cc26xx.a(rpl-icmp6.o)
 .data          0x0000000000000000        0x0 contiki-srf06-cc26xx.a(rpl-icmp6.o)
 .bss           0x0000000000000000        0x0 contiki-srf06-cc26xx.a(rpl-icmp6.o)
 .text.dao_ack_output
                0x0000000000000000        0x4 contiki-srf06-cc26xx.a(rpl-icmp6.o)
 .text          0x0000000000000000        0x0 contiki-srf06-cc26xx.a(setup.o)
 .data          0x0000000000000000        0x0 contiki-srf06-cc26xx.a(setup.o)
 .bss           0x0000000000000000        0x0 contiki-srf06-cc26xx.a(setup.o)
 .text          0x0000000000000000        0x0 contiki-srf06-cc26xx.a(aon_batmon.o)
 .data          0x0000000000000000        0x0 contiki-srf06-cc26xx.a(aon_batmon.o)
 .bss           0x0000000000000000        0x0 contiki-srf06-cc26xx.a(aon_batmon.o)
 .text          0x0000000000000000        0x0 contiki-srf06-cc26xx.a(osc.o)
 .data          0x0000000000000000        0x0 contiki-srf06-cc26xx.a(osc.o)
 .bss           0x0000000000000000        0x0 contiki-srf06-cc26xx.a(osc.o)
 .text.NOROM_OSCHF_GetStartupTime
                0x0000000000000000       0x98 contiki-srf06-cc26xx.a(osc.o)
 .text.NOROM_OSCHF_TurnOnXosc
                0x0000000000000000       0x18 contiki-srf06-cc26xx.a(osc.o)
 .text.NOROM_OSCHF_AttemptToSwitchToXosc
                0x0000000000000000       0x64 contiki-srf06-cc26xx.a(osc.o)
 .text.NOROM_OSCHF_SwitchToRcOscTurnOffXosc
                0x0000000000000000       0x40 contiki-srf06-cc26xx.a(osc.o)
 .text.NOROM_OSC_HPOSCRelativeFrequencyOffsetGet
                0x0000000000000000       0x44 contiki-srf06-cc26xx.a(osc.o)
 .text.NOROM_OSC_HPOSCRelativeFrequencyOffsetToRFCoreFormatConvert
                0x0000000000000000        0xc contiki-srf06-cc26xx.a(osc.o)
 .text.NOROM_OSCHF_DebugGetCrystalAmplitude
                0x0000000000000000       0x38 contiki-srf06-cc26xx.a(osc.o)
 .text.NOROM_OSCHF_DebugGetExpectedAverageCrystalAmplitude
                0x0000000000000000       0x1c contiki-srf06-cc26xx.a(osc.o)
 .bss.oscHfGlobals
                0x0000000000000000       0x14 contiki-srf06-cc26xx.a(osc.o)
 .text          0x0000000000000000        0x0 contiki-srf06-cc26xx.a(ddi.o)
 .data          0x0000000000000000        0x0 contiki-srf06-cc26xx.a(ddi.o)
 .bss           0x0000000000000000        0x0 contiki-srf06-cc26xx.a(ddi.o)
 .text.NOROM_DDI16BitWrite
                0x0000000000000000       0x48 contiki-srf06-cc26xx.a(ddi.o)
 .text.NOROM_DDI16BitRead
                0x0000000000000000       0x38 contiki-srf06-cc26xx.a(ddi.o)
 .text          0x0000000000000000        0x0 contiki-srf06-cc26xx.a(sys_ctrl.o)
 .data          0x0000000000000000        0x0 contiki-srf06-cc26xx.a(sys_ctrl.o)
 .bss           0x0000000000000000        0x0 contiki-srf06-cc26xx.a(sys_ctrl.o)
 .text.NOROM_SysCtrlPowerEverything
                0x0000000000000000       0xf8 contiki-srf06-cc26xx.a(sys_ctrl.o)
 .text.NOROM_SysCtrlResetSourceGet
                0x0000000000000000       0x18 contiki-srf06-cc26xx.a(sys_ctrl.o)
 .rodata.g_pui32ModuleCG
                0x0000000000000000       0x34 contiki-srf06-cc26xx.a(sys_ctrl.o)
 .text          0x0000000000000000        0x0 contiki-srf06-cc26xx.a(adi.o)
 .data          0x0000000000000000        0x0 contiki-srf06-cc26xx.a(adi.o)
 .bss           0x0000000000000000        0x0 contiki-srf06-cc26xx.a(adi.o)
 .text.SafeHapiAuxAdiSelect
                0x0000000000000000       0x30 contiki-srf06-cc26xx.a(adi.o)
 .text          0x0000000000000000        0x0 contiki-srf06-cc26xx.a(pwr_ctrl.o)
 .data          0x0000000000000000        0x0 contiki-srf06-cc26xx.a(pwr_ctrl.o)
 .bss           0x0000000000000000        0x0 contiki-srf06-cc26xx.a(pwr_ctrl.o)
 .text          0x0000000000000000        0x0 contiki-srf06-cc26xx.a(trng.o)
 .data          0x0000000000000000        0x0 contiki-srf06-cc26xx.a(trng.o)
 .bss           0x0000000000000000        0x0 contiki-srf06-cc26xx.a(trng.o)
 .text.NOROM_TRNGNumberGet
                0x0000000000000000       0x20 contiki-srf06-cc26xx.a(trng.o)
 .text          0x0000000000000000        0x0 contiki-srf06-cc26xx.a(cpu.o)
 .data          0x0000000000000000        0x0 contiki-srf06-cc26xx.a(cpu.o)
 .bss           0x0000000000000000        0x0 contiki-srf06-cc26xx.a(cpu.o)
 .text.NOROM_CPUprimask
                0x0000000000000000        0x8 contiki-srf06-cc26xx.a(cpu.o)
 .text.NOROM_CPUbasepriGet
                0x0000000000000000        0x8 contiki-srf06-cc26xx.a(cpu.o)
 .text          0x0000000000000000        0x0 contiki-srf06-cc26xx.a(aon_rtc.o)
 .data          0x0000000000000000        0x0 contiki-srf06-cc26xx.a(aon_rtc.o)
 .bss           0x0000000000000000        0x0 contiki-srf06-cc26xx.a(aon_rtc.o)
 .text.NOROM_AONRTCCurrent64BitValueGet
                0x0000000000000000       0x1c contiki-srf06-cc26xx.a(aon_rtc.o)
 .text          0x0000000000000000        0x0 contiki-srf06-cc26xx.a(chipinfo.o)
 .data          0x0000000000000000        0x0 contiki-srf06-cc26xx.a(chipinfo.o)
 .bss           0x0000000000000000        0x0 contiki-srf06-cc26xx.a(chipinfo.o)
 .text.NOROM_ChipInfo_GetPackageType
                0x0000000000000000       0x18 contiki-srf06-cc26xx.a(chipinfo.o)
 .text          0x0000000000000000        0x0 contiki-srf06-cc26xx.a(queuebuf.o)
 .data          0x0000000000000000        0x0 contiki-srf06-cc26xx.a(queuebuf.o)
 .bss           0x0000000000000000        0x0 contiki-srf06-cc26xx.a(queuebuf.o)
 .text.queuebuf_dataptr
                0x0000000000000000       0x18 contiki-srf06-cc26xx.a(queuebuf.o)
 .text.queuebuf_datalen
                0x0000000000000000        0x8 contiki-srf06-cc26xx.a(queuebuf.o)
 .text.queuebuf_addr
                0x0000000000000000        0xc contiki-srf06-cc26xx.a(queuebuf.o)
 .text.queuebuf_debug_print
                0x0000000000000000        0x4 contiki-srf06-cc26xx.a(queuebuf.o)
 .text          0x0000000000000000        0x0 contiki-srf06-cc26xx.a(nbr-table.o)
 .data          0x0000000000000000        0x0 contiki-srf06-cc26xx.a(nbr-table.o)
 .bss           0x0000000000000000        0x0 contiki-srf06-cc26xx.a(nbr-table.o)
 .text          0x0000000000000000        0x0 contiki-srf06-cc26xx.a(packetbuf.o)
 .data          0x0000000000000000        0x0 contiki-srf06-cc26xx.a(packetbuf.o)
 .bss           0x0000000000000000        0x0 contiki-srf06-cc26xx.a(packetbuf.o)
 .text.packetbuf_compact
                0x0000000000000000       0x44 contiki-srf06-cc26xx.a(packetbuf.o)
 .text.packetbuf_hdrlen
                0x0000000000000000       0x18 contiki-srf06-cc26xx.a(packetbuf.o)
 .text.packetbuf_remaininglen
                0x0000000000000000       0x28 contiki-srf06-cc26xx.a(packetbuf.o)
 .text          0x0000000000000000        0x0 contiki-srf06-cc26xx.a(netstack.o)
 .data          0x0000000000000000        0x0 contiki-srf06-cc26xx.a(netstack.o)
 .bss           0x0000000000000000        0x0 contiki-srf06-cc26xx.a(netstack.o)
 .text          0x0000000000000000        0x0 contiki-srf06-cc26xx.a(linkaddr.o)
 .data          0x0000000000000000        0x0 contiki-srf06-cc26xx.a(linkaddr.o)
 .bss           0x0000000000000000        0x0 contiki-srf06-cc26xx.a(linkaddr.o)
 .text.linkaddr_set_node_addr
                0x0000000000000000       0x10 contiki-srf06-cc26xx.a(linkaddr.o)
 .text          0x0000000000000000        0x0 contiki-srf06-cc26xx.a(link-stats.o)
 .data          0x0000000000000000        0x0 contiki-srf06-cc26xx.a(link-stats.o)
 .bss           0x0000000000000000        0x0 contiki-srf06-cc26xx.a(link-stats.o)
 .text.guess_etx_from_rssi
                0x0000000000000000       0x40 contiki-srf06-cc26xx.a(link-stats.o)
 .text          0x0000000000000000        0x0 contiki-srf06-cc26xx.a(framer-802154.o)
 .data          0x0000000000000000        0x0 contiki-srf06-cc26xx.a(framer-802154.o)
 .bss           0x0000000000000000        0x0 contiki-srf06-cc26xx.a(framer-802154.o)
 .text          0x0000000000000000        0x0 contiki-srf06-cc26xx.a(frame802154.o)
 .data          0x0000000000000000        0x0 contiki-srf06-cc26xx.a(frame802154.o)
 .bss           0x0000000000000000        0x0 contiki-srf06-cc26xx.a(frame802154.o)
 .text.frame802154_set_pan_id
                0x0000000000000000        0xc contiki-srf06-cc26xx.a(frame802154.o)
 .text.frame802154_check_dest_panid
                0x0000000000000000       0x3c contiki-srf06-cc26xx.a(frame802154.o)
 .text.frame802154_extract_linkaddr
                0x0000000000000000       0x98 contiki-srf06-cc26xx.a(frame802154.o)
 .text          0x0000000000000000        0x0 contiki-srf06-cc26xx.a(csma.o)
 .data          0x0000000000000000        0x0 contiki-srf06-cc26xx.a(csma.o)
 .bss           0x0000000000000000        0x0 contiki-srf06-cc26xx.a(csma.o)
 .text          0x0000000000000000        0x0 contiki-srf06-cc26xx.a(contikimac.o)
 .data          0x0000000000000000        0x0 contiki-srf06-cc26xx.a(contikimac.o)
 .bss           0x0000000000000000        0x0 contiki-srf06-cc26xx.a(contikimac.o)
 .text.contikimac_debug_print
                0x0000000000000000        0x4 contiki-srf06-cc26xx.a(contikimac.o)
 .text          0x0000000000000000        0x0 contiki-srf06-cc26xx.a(nullsec.o)
 .data          0x0000000000000000        0x0 contiki-srf06-cc26xx.a(nullsec.o)
 .bss           0x0000000000000000        0x0 contiki-srf06-cc26xx.a(nullsec.o)
 .text          0x0000000000000000        0x0 contiki-srf06-cc26xx.a(er-coap.o)
 .data          0x0000000000000000        0x0 contiki-srf06-cc26xx.a(er-coap.o)
 .bss           0x0000000000000000        0x0 contiki-srf06-cc26xx.a(er-coap.o)
 .text.coap_set_header_accept
                0x0000000000000000       0x10 contiki-srf06-cc26xx.a(er-coap.o)
 .text.coap_get_header_etag
                0x0000000000000000       0x1c contiki-srf06-cc26xx.a(er-coap.o)
 .text.coap_set_header_if_match
                0x0000000000000000       0x24 contiki-srf06-cc26xx.a(er-coap.o)
 .text.coap_set_header_if_none_match
                0x0000000000000000       0x10 contiki-srf06-cc26xx.a(er-coap.o)
 .text.coap_get_header_proxy_uri
                0x0000000000000000       0x18 contiki-srf06-cc26xx.a(er-coap.o)
 .text.coap_set_header_proxy_uri
                0x0000000000000000       0x18 contiki-srf06-cc26xx.a(er-coap.o)
 .text.coap_set_header_uri_host
                0x0000000000000000       0x18 contiki-srf06-cc26xx.a(er-coap.o)
 .text.coap_set_header_uri_query
                0x0000000000000000       0x2c contiki-srf06-cc26xx.a(er-coap.o)
 .text.coap_get_header_location_path
                0x0000000000000000       0x14 contiki-srf06-cc26xx.a(er-coap.o)
 .text.coap_get_header_location_query
                0x0000000000000000       0x18 contiki-srf06-cc26xx.a(er-coap.o)
 .text.coap_set_header_location_query
                0x0000000000000000       0x28 contiki-srf06-cc26xx.a(er-coap.o)
 .text.coap_get_header_observe
                0x0000000000000000       0x18 contiki-srf06-cc26xx.a(er-coap.o)
 .text.coap_get_header_block1
                0x0000000000000000       0x40 contiki-srf06-cc26xx.a(er-coap.o)
 .text.coap_set_header_block1
                0x0000000000000000       0x34 contiki-srf06-cc26xx.a(er-coap.o)
 .text.coap_get_header_size1
                0x0000000000000000       0x1c contiki-srf06-cc26xx.a(er-coap.o)
 .text.coap_set_header_size1
                0x0000000000000000       0x10 contiki-srf06-cc26xx.a(er-coap.o)
 .text          0x0000000000000000        0x0 contiki-srf06-cc26xx.a(sensor-common.o)
 .data          0x0000000000000000        0x0 contiki-srf06-cc26xx.a(sensor-common.o)
 .bss           0x0000000000000000        0x0 contiki-srf06-cc26xx.a(sensor-common.o)
 .text          0x0000000000000000        0x0 contiki-srf06-cc26xx.a(aux-ctrl.o)
 .data          0x0000000000000000        0x0 contiki-srf06-cc26xx.a(aux-ctrl.o)
 .bss           0x0000000000000000        0x0 contiki-srf06-cc26xx.a(aux-ctrl.o)
 .text          0x0000000000000000        0x0 contiki-srf06-cc26xx.a(rf-core.o)
 .data          0x0000000000000000        0x0 contiki-srf06-cc26xx.a(rf-core.o)
 .bss           0x0000000000000000        0x0 contiki-srf06-cc26xx.a(rf-core.o)
 .text          0x0000000000000000        0x0 contiki-srf06-cc26xx.a(stimer.o)
 .data          0x0000000000000000        0x0 contiki-srf06-cc26xx.a(stimer.o)
 .bss           0x0000000000000000        0x0 contiki-srf06-cc26xx.a(stimer.o)
 .text.stimer_reset
                0x0000000000000000        0xc contiki-srf06-cc26xx.a(stimer.o)
 .text.stimer_restart
                0x0000000000000000        0xc contiki-srf06-cc26xx.a(stimer.o)
 .text.stimer_remaining
                0x0000000000000000       0x10 contiki-srf06-cc26xx.a(stimer.o)
 .text.stimer_elapsed
                0x0000000000000000       0x10 contiki-srf06-cc26xx.a(stimer.o)
 .text          0x0000000000000000        0x0 contiki-srf06-cc26xx.a(rpl-nbr-policy.)
 .data          0x0000000000000000        0x0 contiki-srf06-cc26xx.a(rpl-nbr-policy.)
 .bss           0x0000000000000000        0x0 contiki-srf06-cc26xx.a(rpl-nbr-policy.)
 .text.find_removable_dis
                0x0000000000000000       0x20 contiki-srf06-cc26xx.a(rpl-nbr-policy.)
 .text.find_removable_dao
                0x0000000000000000       0x38 contiki-srf06-cc26xx.a(rpl-nbr-policy.)
 .text          0x0000000000000000        0x0 contiki-srf06-cc26xx.a(setup_rom.o)
 .data          0x0000000000000000        0x0 contiki-srf06-cc26xx.a(setup_rom.o)
 .bss           0x0000000000000000        0x0 contiki-srf06-cc26xx.a(setup_rom.o)
 .text.NOROM_SetupGetTrimForRcOscLfRtuneCtuneTrim
                0x0000000000000000       0x18 contiki-srf06-cc26xx.a(setup_rom.o)
 .text.NOROM_SetupGetTrimForXoscHfIbiastherm
                0x0000000000000000       0x10 contiki-srf06-cc26xx.a(setup_rom.o)
 .text.NOROM_SetupGetTrimForAmpcompTh2
                0x0000000000000000       0x10 contiki-srf06-cc26xx.a(setup_rom.o)
 .text.NOROM_SetupGetTrimForAmpcompTh1
                0x0000000000000000       0x14 contiki-srf06-cc26xx.a(setup_rom.o)
 .text.NOROM_SetupGetTrimForDblrLoopFilterResetVoltage
                0x0000000000000000       0x14 contiki-srf06-cc26xx.a(setup_rom.o)
 .text.NOROM_SetupGetTrimForAdcShModeEn
                0x0000000000000000       0x14 contiki-srf06-cc26xx.a(setup_rom.o)
 .text.NOROM_SetupGetTrimForAdcShVbufEn
                0x0000000000000000       0x14 contiki-srf06-cc26xx.a(setup_rom.o)
 .text.NOROM_SetupGetTrimForXoscHfCtl
                0x0000000000000000        0xc contiki-srf06-cc26xx.a(setup_rom.o)
 .text.NOROM_SetupGetTrimForXoscHfFastStart
                0x0000000000000000       0x10 contiki-srf06-cc26xx.a(setup_rom.o)
 .text.NOROM_SetupGetTrimForRadcExtCfg
                0x0000000000000000       0x10 contiki-srf06-cc26xx.a(setup_rom.o)
 .text.NOROM_SetupGetTrimForRcOscLfIBiasTrim
                0x0000000000000000       0x14 contiki-srf06-cc26xx.a(setup_rom.o)
 .text.NOROM_SetupGetTrimForXoscLfRegulatorAndCmirrwrRatio
                0x0000000000000000       0x14 contiki-srf06-cc26xx.a(setup_rom.o)
 .text.NOROM_SetupSetAonRtcSubSecInc
                0x0000000000000000       0x38 contiki-srf06-cc26xx.a(setup_rom.o)
 .text          0x0000000000000000        0x0 contiki-srf06-cc26xx.a(mac-sequence.o)
 .data          0x0000000000000000        0x0 contiki-srf06-cc26xx.a(mac-sequence.o)
 .bss           0x0000000000000000        0x0 contiki-srf06-cc26xx.a(mac-sequence.o)
 .text          0x0000000000000000        0x0 contiki-srf06-cc26xx.a(mac.o)
 .data          0x0000000000000000        0x0 contiki-srf06-cc26xx.a(mac.o)
 .bss           0x0000000000000000        0x0 contiki-srf06-cc26xx.a(mac.o)
 .data          0x0000000000000000        0x0 /usr/lib/gcc/arm-none-eabi/5.4.1/../../../arm-none-eabi/lib/armv7-m/libm.a(lib_a-w_exp2.o)
 .bss           0x0000000000000000        0x0 /usr/lib/gcc/arm-none-eabi/5.4.1/../../../arm-none-eabi/lib/armv7-m/libm.a(lib_a-w_exp2.o)
 .data          0x0000000000000000        0x0 /usr/lib/gcc/arm-none-eabi/5.4.1/../../../arm-none-eabi/lib/armv7-m/libm.a(lib_a-w_pow.o)
 .bss           0x0000000000000000        0x0 /usr/lib/gcc/arm-none-eabi/5.4.1/../../../arm-none-eabi/lib/armv7-m/libm.a(lib_a-w_pow.o)
 .data          0x0000000000000000        0x0 /usr/lib/gcc/arm-none-eabi/5.4.1/../../../arm-none-eabi/lib/armv7-m/libm.a(lib_a-e_pow.o)
 .bss           0x0000000000000000        0x0 /usr/lib/gcc/arm-none-eabi/5.4.1/../../../arm-none-eabi/lib/armv7-m/libm.a(lib_a-e_pow.o)
 .data          0x0000000000000000        0x0 /usr/lib/gcc/arm-none-eabi/5.4.1/../../../arm-none-eabi/lib/armv7-m/libm.a(lib_a-e_sqrt.o)
 .bss           0x0000000000000000        0x0 /usr/lib/gcc/arm-none-eabi/5.4.1/../../../arm-none-eabi/lib/armv7-m/libm.a(lib_a-e_sqrt.o)
 .data          0x0000000000000000        0x0 /usr/lib/gcc/arm-none-eabi/5.4.1/../../../arm-none-eabi/lib/armv7-m/libm.a(lib_a-s_fabs.o)
 .bss           0x0000000000000000        0x0 /usr/lib/gcc/arm-none-eabi/5.4.1/../../../arm-none-eabi/lib/armv7-m/libm.a(lib_a-s_fabs.o)
 .data          0x0000000000000000        0x0 /usr/lib/gcc/arm-none-eabi/5.4.1/../../../arm-none-eabi/lib/armv7-m/libm.a(lib_a-s_finite.o)
 .bss           0x0000000000000000        0x0 /usr/lib/gcc/arm-none-eabi/5.4.1/../../../arm-none-eabi/lib/armv7-m/libm.a(lib_a-s_finite.o)
 .text          0x0000000000000000        0x0 /usr/lib/gcc/arm-none-eabi/5.4.1/../../../arm-none-eabi/lib/armv7-m/libm.a(lib_a-s_lib_ver.o)
 .bss           0x0000000000000000        0x0 /usr/lib/gcc/arm-none-eabi/5.4.1/../../../arm-none-eabi/lib/armv7-m/libm.a(lib_a-s_lib_ver.o)
 .data          0x0000000000000000        0x0 /usr/lib/gcc/arm-none-eabi/5.4.1/../../../arm-none-eabi/lib/armv7-m/libm.a(lib_a-s_matherr.o)
 .bss           0x0000000000000000        0x0 /usr/lib/gcc/arm-none-eabi/5.4.1/../../../arm-none-eabi/lib/armv7-m/libm.a(lib_a-s_matherr.o)
 .data          0x0000000000000000        0x0 /usr/lib/gcc/arm-none-eabi/5.4.1/../../../arm-none-eabi/lib/armv7-m/libm.a(lib_a-s_nan.o)
 .bss           0x0000000000000000        0x0 /usr/lib/gcc/arm-none-eabi/5.4.1/../../../arm-none-eabi/lib/armv7-m/libm.a(lib_a-s_nan.o)
 .data          0x0000000000000000        0x0 /usr/lib/gcc/arm-none-eabi/5.4.1/../../../arm-none-eabi/lib/armv7-m/libm.a(lib_a-s_rint.o)
 .bss           0x0000000000000000        0x0 /usr/lib/gcc/arm-none-eabi/5.4.1/../../../arm-none-eabi/lib/armv7-m/libm.a(lib_a-s_rint.o)
 .data          0x0000000000000000        0x0 /usr/lib/gcc/arm-none-eabi/5.4.1/../../../arm-none-eabi/lib/armv7-m/libm.a(lib_a-s_scalbn.o)
 .bss           0x0000000000000000        0x0 /usr/lib/gcc/arm-none-eabi/5.4.1/../../../arm-none-eabi/lib/armv7-m/libm.a(lib_a-s_scalbn.o)
 .data          0x0000000000000000        0x0 /usr/lib/gcc/arm-none-eabi/5.4.1/../../../arm-none-eabi/lib/armv7-m/libm.a(lib_a-s_copysign.o)
 .bss           0x0000000000000000        0x0 /usr/lib/gcc/arm-none-eabi/5.4.1/../../../arm-none-eabi/lib/armv7-m/libm.a(lib_a-s_copysign.o)
 .data          0x0000000000000000        0x0 /usr/lib/gcc/arm-none-eabi/5.4.1/armv7-m/libgcc.a(_arm_addsubdf3.o)
 .bss           0x0000000000000000        0x0 /usr/lib/gcc/arm-none-eabi/5.4.1/armv7-m/libgcc.a(_arm_addsubdf3.o)
 .data          0x0000000000000000        0x0 /usr/lib/gcc/arm-none-eabi/5.4.1/armv7-m/libgcc.a(_arm_muldivdf3.o)
 .bss           0x0000000000000000        0x0 /usr/lib/gcc/arm-none-eabi/5.4.1/armv7-m/libgcc.a(_arm_muldivdf3.o)
 .data          0x0000000000000000        0x0 /usr/lib/gcc/arm-none-eabi/5.4.1/armv7-m/libgcc.a(_arm_cmpdf2.o)
 .bss           0x0000000000000000        0x0 /usr/lib/gcc/arm-none-eabi/5.4.1/armv7-m/libgcc.a(_arm_cmpdf2.o)
 .data          0x0000000000000000        0x0 /usr/lib/gcc/arm-none-eabi/5.4.1/armv7-m/libgcc.a(_arm_unorddf2.o)
 .bss           0x0000000000000000        0x0 /usr/lib/gcc/arm-none-eabi/5.4.1/armv7-m/libgcc.a(_arm_unorddf2.o)
 .data          0x0000000000000000        0x0 /usr/lib/gcc/arm-none-eabi/5.4.1/armv7-m/libgcc.a(_arm_truncdfsf2.o)
 .bss           0x0000000000000000        0x0 /usr/lib/gcc/arm-none-eabi/5.4.1/armv7-m/libgcc.a(_arm_truncdfsf2.o)
 .data          0x0000000000000000        0x0 /usr/lib/gcc/arm-none-eabi/5.4.1/armv7-m/libgcc.a(_arm_addsubsf3.o)
 .bss           0x0000000000000000        0x0 /usr/lib/gcc/arm-none-eabi/5.4.1/armv7-m/libgcc.a(_arm_addsubsf3.o)
 .data          0x0000000000000000        0x0 /usr/lib/gcc/arm-none-eabi/5.4.1/armv7-m/libgcc.a(_arm_muldivsf3.o)
 .bss           0x0000000000000000        0x0 /usr/lib/gcc/arm-none-eabi/5.4.1/armv7-m/libgcc.a(_arm_muldivsf3.o)
 .data          0x0000000000000000        0x0 /usr/lib/gcc/arm-none-eabi/5.4.1/armv7-m/libgcc.a(_arm_fixsfsi.o)
 .bss           0x0000000000000000        0x0 /usr/lib/gcc/arm-none-eabi/5.4.1/armv7-m/libgcc.a(_arm_fixsfsi.o)
 .data          0x0000000000000000        0x0 /usr/lib/gcc/arm-none-eabi/5.4.1/armv7-m/libgcc.a(_aeabi_uldivmod.o)
 .bss           0x0000000000000000        0x0 /usr/lib/gcc/arm-none-eabi/5.4.1/armv7-m/libgcc.a(_aeabi_uldivmod.o)
 .data          0x0000000000000000        0x0 /usr/lib/gcc/arm-none-eabi/5.4.1/armv7-m/libgcc.a(_udivmoddi4.o)
 .bss           0x0000000000000000        0x0 /usr/lib/gcc/arm-none-eabi/5.4.1/armv7-m/libgcc.a(_udivmoddi4.o)
 .ARM.extab     0x0000000000000000        0x0 /usr/lib/gcc/arm-none-eabi/5.4.1/armv7-m/libgcc.a(_udivmoddi4.o)
 .data          0x0000000000000000        0x0 /usr/lib/gcc/arm-none-eabi/5.4.1/armv7-m/libgcc.a(_dvmd_tls.o)
 .bss           0x0000000000000000        0x0 /usr/lib/gcc/arm-none-eabi/5.4.1/armv7-m/libgcc.a(_dvmd_tls.o)
 .data          0x0000000000000000        0x0 /usr/lib/gcc/arm-none-eabi/5.4.1/../../../arm-none-eabi/lib/armv7-m/libc.a(lib_a-atoi.o)
 .bss           0x0000000000000000        0x0 /usr/lib/gcc/arm-none-eabi/5.4.1/../../../arm-none-eabi/lib/armv7-m/libc.a(lib_a-atoi.o)
 .text          0x0000000000000000        0x0 /usr/lib/gcc/arm-none-eabi/5.4.1/../../../arm-none-eabi/lib/armv7-m/libc.a(lib_a-ctype_.o)
 .bss           0x0000000000000000        0x0 /usr/lib/gcc/arm-none-eabi/5.4.1/../../../arm-none-eabi/lib/armv7-m/libc.a(lib_a-ctype_.o)
 .data          0x0000000000000000        0x0 /usr/lib/gcc/arm-none-eabi/5.4.1/../../../arm-none-eabi/lib/armv7-m/libc.a(lib_a-errno.o)
 .bss           0x0000000000000000        0x0 /usr/lib/gcc/arm-none-eabi/5.4.1/../../../arm-none-eabi/lib/armv7-m/libc.a(lib_a-errno.o)
 .text          0x0000000000000000        0x0 /usr/lib/gcc/arm-none-eabi/5.4.1/../../../arm-none-eabi/lib/armv7-m/libc.a(lib_a-impure.o)
 .bss           0x0000000000000000        0x0 /usr/lib/gcc/arm-none-eabi/5.4.1/../../../arm-none-eabi/lib/armv7-m/libc.a(lib_a-impure.o)
 .rodata        0x0000000000000000        0x4 /usr/lib/gcc/arm-none-eabi/5.4.1/../../../arm-none-eabi/lib/armv7-m/libc.a(lib_a-impure.o)
 .data          0x0000000000000000        0x0 /usr/lib/gcc/arm-none-eabi/5.4.1/../../../arm-none-eabi/lib/armv7-m/libc.a(lib_a-memchr-stub.o)
 .bss           0x0000000000000000        0x0 /usr/lib/gcc/arm-none-eabi/5.4.1/../../../arm-none-eabi/lib/armv7-m/libc.a(lib_a-memchr-stub.o)
 .data          0x0000000000000000        0x0 /usr/lib/gcc/arm-none-eabi/5.4.1/../../../arm-none-eabi/lib/armv7-m/libc.a(lib_a-memcmp.o)
 .bss           0x0000000000000000        0x0 /usr/lib/gcc/arm-none-eabi/5.4.1/../../../arm-none-eabi/lib/armv7-m/libc.a(lib_a-memcmp.o)
 .data          0x0000000000000000        0x0 /usr/lib/gcc/arm-none-eabi/5.4.1/../../../arm-none-eabi/lib/armv7-m/libc.a(lib_a-memcpy.o)
 .bss           0x0000000000000000        0x0 /usr/lib/gcc/arm-none-eabi/5.4.1/../../../arm-none-eabi/lib/armv7-m/libc.a(lib_a-memcpy.o)
 .data          0x0000000000000000        0x0 /usr/lib/gcc/arm-none-eabi/5.4.1/../../../arm-none-eabi/lib/armv7-m/libc.a(lib_a-memmove.o)
 .bss           0x0000000000000000        0x0 /usr/lib/gcc/arm-none-eabi/5.4.1/../../../arm-none-eabi/lib/armv7-m/libc.a(lib_a-memmove.o)
 .data          0x0000000000000000        0x0 /usr/lib/gcc/arm-none-eabi/5.4.1/../../../arm-none-eabi/lib/armv7-m/libc.a(lib_a-memset.o)
 .bss           0x0000000000000000        0x0 /usr/lib/gcc/arm-none-eabi/5.4.1/../../../arm-none-eabi/lib/armv7-m/libc.a(lib_a-memset.o)
 .data          0x0000000000000000        0x0 /usr/lib/gcc/arm-none-eabi/5.4.1/../../../arm-none-eabi/lib/armv7-m/libc.a(lib_a-strchr.o)
 .bss           0x0000000000000000        0x0 /usr/lib/gcc/arm-none-eabi/5.4.1/../../../arm-none-eabi/lib/armv7-m/libc.a(lib_a-strchr.o)
 .data          0x0000000000000000        0x0 /usr/lib/gcc/arm-none-eabi/5.4.1/../../../arm-none-eabi/lib/armv7-m/libc.a(lib_a-strlen-stub.o)
 .bss           0x0000000000000000        0x0 /usr/lib/gcc/arm-none-eabi/5.4.1/../../../arm-none-eabi/lib/armv7-m/libc.a(lib_a-strlen-stub.o)
 .data          0x0000000000000000        0x0 /usr/lib/gcc/arm-none-eabi/5.4.1/../../../arm-none-eabi/lib/armv7-m/libc.a(lib_a-strncasecmp.o)
 .bss           0x0000000000000000        0x0 /usr/lib/gcc/arm-none-eabi/5.4.1/../../../arm-none-eabi/lib/armv7-m/libc.a(lib_a-strncasecmp.o)
 .data          0x0000000000000000        0x0 /usr/lib/gcc/arm-none-eabi/5.4.1/../../../arm-none-eabi/lib/armv7-m/libc.a(lib_a-strncmp.o)
 .bss           0x0000000000000000        0x0 /usr/lib/gcc/arm-none-eabi/5.4.1/../../../arm-none-eabi/lib/armv7-m/libc.a(lib_a-strncmp.o)
 .data          0x0000000000000000        0x0 /usr/lib/gcc/arm-none-eabi/5.4.1/../../../arm-none-eabi/lib/armv7-m/libc.a(lib_a-strncpy.o)
 .bss           0x0000000000000000        0x0 /usr/lib/gcc/arm-none-eabi/5.4.1/../../../arm-none-eabi/lib/armv7-m/libc.a(lib_a-strncpy.o)
 .data          0x0000000000000000        0x0 /usr/lib/gcc/arm-none-eabi/5.4.1/../../../arm-none-eabi/lib/armv7-m/libc.a(lib_a-strtol.o)
 .bss           0x0000000000000000        0x0 /usr/lib/gcc/arm-none-eabi/5.4.1/../../../arm-none-eabi/lib/armv7-m/libc.a(lib_a-strtol.o)

Memory Configuration

Name             Origin             Length             Attributes
FLASH            0x0000000000000000 0x000000000001ffa8 xr
FLASH_CCFG       0x000000000001ffa8 0x0000000000000058 xr
SRAM             0x0000000020000000 0x0000000000005000 xrw
GPRAM            0x0000000011000000 0x0000000000002000 xrw
*default*        0x0000000000000000 0xffffffffffffffff

Linker script and memory map

LOAD obj_srf06-cc26xx/fault-handlers.o
LOAD obj_srf06-cc26xx/ccfg.o
LOAD obj_srf06-cc26xx/startup_gcc.o
LOAD cc26xx-web-demo.co
LOAD obj_srf06-cc26xx/res-leds.o
LOAD obj_srf06-cc26xx/res-toggle-leds.o
LOAD obj_srf06-cc26xx/res-device.o
LOAD obj_srf06-cc26xx/res-sensors.o
LOAD obj_srf06-cc26xx/res-ble-advd.o
LOAD obj_srf06-cc26xx/res-net.o
LOAD obj_srf06-cc26xx/cetic-6lbr-client.o
LOAD obj_srf06-cc26xx/coap-server.o
LOAD obj_srf06-cc26xx/net-uart.o
LOAD obj_srf06-cc26xx/mqtt-client.o
LOAD obj_srf06-cc26xx/httpd-simple.o
LOAD contiki-srf06-cc26xx.a
LOAD /usr/lib/gcc/arm-none-eabi/5.4.1/../../../arm-none-eabi/lib/armv7-m/libm.a
START GROUP
LOAD /usr/lib/gcc/arm-none-eabi/5.4.1/armv7-m/libgcc.a
LOAD /usr/lib/gcc/arm-none-eabi/5.4.1/../../../arm-none-eabi/lib/armv7-m/libc.a
END GROUP
                0x0000000020005000                _estack = (ORIGIN (SRAM) + LENGTH (SRAM))
                0x0000000000000000                _Min_Heap_Size = 0x0
                0x0000000000000100                _Min_Stack_Size = 0x100

.text           0x0000000000000000    0x1c91d
                0x0000000000000000                _text = .
 *(SORT(.vectors))
 .vectors       0x0000000000000000       0xc8 obj_srf06-cc26xx/startup_gcc.o
                0x0000000000000000                g_pfnVectors
 *(SORT(.text*))
 .text.value    0x00000000000000c8       0xb0 contiki-srf06-cc26xx.a(opt-3001-sensor)
 .text.value    0x0000000000000178       0x9c contiki-srf06-cc26xx.a(hdc-1000-sensor)
 *fill*         0x0000000000000214        0x4 00000000
 .text.value    0x0000000000000218      0x19c contiki-srf06-cc26xx.a(mpu-9250-sensor)
 *fill*         0x00000000000003b4        0x4 00000000
 .text          0x00000000000003b8      0xac4 /usr/lib/gcc/arm-none-eabi/5.4.1/../../../arm-none-eabi/lib/armv7-m/libm.a(lib_a-e_pow.o)
                0x00000000000003b8                __ieee754_pow
 *fill*         0x0000000000000e7c        0x4 00000000
 .text          0x0000000000000e80       0xe4 /usr/lib/gcc/arm-none-eabi/5.4.1/../../../arm-none-eabi/lib/armv7-m/libm.a(lib_a-s_scalbn.o)
                0x0000000000000e80                scalbn
 .text.FaultISR
                0x0000000000000f64       0x18 obj_srf06-cc26xx/fault-handlers.o
                0x0000000000000f64                FaultISR
 .text.NmiSRHandler
                0x0000000000000f7c        0x4 obj_srf06-cc26xx/startup_gcc.o
                0x0000000000000f7c                NmiSR
 .text.IntDefaultHandler
                0x0000000000000f80        0x4 obj_srf06-cc26xx/startup_gcc.o
                0x0000000000000f80                SSI0IntHandler
                0x0000000000000f80                SWEvent0IntHandler
                0x0000000000000f80                uDMAIntHandler
                0x0000000000000f80                WatchdogIntHandler
                0x0000000000000f80                RFCHardwareIntHandler
                0x0000000000000f80                Timer1BIntHandler
                0x0000000000000f80                I2SIntHandler
                0x0000000000000f80                Timer2BIntHandler
                0x0000000000000f80                Timer2AIntHandler
                0x0000000000000f80                Timer1AIntHandler
                0x0000000000000f80                AONIntHandler
                0x0000000000000f80                AUXSWEvent0IntHandler
                0x0000000000000f80                AUXADCIntHandler
                0x0000000000000f80                PendSVIntHandler
                0x0000000000000f80                AUXSWEvent1IntHandler
                0x0000000000000f80                SVCallIntHandler
                0x0000000000000f80                MPUFaultIntHandler
                0x0000000000000f80                SysTickIntHandler
                0x0000000000000f80                BusFaultIntHandler
                0x0000000000000f80                AONProgIntHandler
                0x0000000000000f80                AUXCompAIntHandler
                0x0000000000000f80                SSI1IntHandler
                0x0000000000000f80                FlashIntHandler
                0x0000000000000f80                uDMAErrIntHandler
                0x0000000000000f80                UsageFaultIntHandler
                0x0000000000000f80                RFCCmdAckIntHandler
                0x0000000000000f80                CryptoIntHandler
                0x0000000000000f80                Timer0AIntHandler
                0x0000000000000f80                I2CIntHandler
                0x0000000000000f80                DebugMonIntHandler
                0x0000000000000f80                Timer0BIntHandler
                0x0000000000000f80                AUXCombEventIntHandler
                0x0000000000000f80                Timer3AIntHandler
                0x0000000000000f80                DynProgIntHandler
                0x0000000000000f80                Timer3BIntHandler
 .text.ResetISR
                0x0000000000000f84       0x5c obj_srf06-cc26xx/startup_gcc.o
                0x0000000000000f84                ResetISR
 .text.publish_led_off
                0x0000000000000fe0        0x8 cc26xx-web-demo.co
 .text.load_config
                0x0000000000000fe8       0xa8 cc26xx-web-demo.co
 .text.get_batmon_reading
                0x0000000000001090       0xb0 cc26xx-web-demo.co
 .text.print_mpu_reading
                0x0000000000001140       0x3c cc26xx-web-demo.co
 .text.sensor_readings_handler
                0x000000000000117c       0x7c cc26xx-web-demo.co
 .text.init_bmp_reading
                0x00000000000011f8       0x3c cc26xx-web-demo.co
 .text.init_light_reading
                0x0000000000001234       0x30 cc26xx-web-demo.co
 .text.init_hdc_reading
                0x0000000000001264       0x3c cc26xx-web-demo.co
 .text.init_tmp_reading
                0x00000000000012a0       0x3c cc26xx-web-demo.co
 .text.init_mpu_reading
                0x00000000000012dc       0x78 cc26xx-web-demo.co
 .text.init_sensor_readings
                0x0000000000001354       0x2c cc26xx-web-demo.co
 .text.echo_reply_handler
                0x0000000000001380       0x24 cc26xx-web-demo.co
 .text.save_config
                0x00000000000013a4       0x94 cc26xx-web-demo.co
 .text.ping_interval_post_handler
                0x0000000000001438       0x44 cc26xx-web-demo.co
 .text.cc26xx_web_demo_ipaddr_sprintf
                0x000000000000147c       0xa4 cc26xx-web-demo.co
                0x000000000000147c                cc26xx_web_demo_ipaddr_sprintf
 .text.cc26xx_web_demo_sensor_lookup
                0x0000000000001520       0x30 cc26xx-web-demo.co
                0x0000000000001520                cc26xx_web_demo_sensor_lookup
 .text.cc26xx_web_demo_sensor_first
                0x0000000000001550        0xc cc26xx-web-demo.co
                0x0000000000001550                cc26xx_web_demo_sensor_first
 .text.cc26xx_web_demo_restore_defaults
                0x000000000000155c       0x50 cc26xx-web-demo.co
                0x000000000000155c                cc26xx_web_demo_restore_defaults
 .text.process_thread_cc26xx_web_demo_process
                0x00000000000015ac      0x8e4 cc26xx-web-demo.co
 .text.defaults_post_handler
                0x0000000000001e90       0x24 cc26xx-web-demo.co
 .text.res_post_put_handler
                0x0000000000001eb4       0xa8 obj_srf06-cc26xx/res-leds.o
 .text.res_post_handler_red
                0x0000000000001f5c        0x8 obj_srf06-cc26xx/res-toggle-leds.o
 .text.res_post_handler_green
                0x0000000000001f64        0x8 obj_srf06-cc26xx/res-toggle-leds.o
 .text.res_get_handler_sw
                0x0000000000001f6c       0xcc obj_srf06-cc26xx/res-device.o
 .text.res_get_handler_uptime
                0x0000000000002038       0xbc obj_srf06-cc26xx/res-device.o
 .text.res_get_handler_hw
                0x00000000000020f4      0x128 obj_srf06-cc26xx/res-device.o
 .text.res_post_handler_cfg_reset
                0x000000000000221c        0x4 obj_srf06-cc26xx/res-device.o
 .text.res_get_handler_all.isra.0
                0x0000000000002220       0xf4 obj_srf06-cc26xx/res-sensors.o
 .text.res_get_handler_batmon_temp
                0x0000000000002314        0xc obj_srf06-cc26xx/res-sensors.o
 .text.res_get_handler_batmon_volt
                0x0000000000002320        0xc obj_srf06-cc26xx/res-sensors.o
 .text.res_get_handler_mpu_acc_x
                0x000000000000232c        0xc obj_srf06-cc26xx/res-sensors.o
 .text.res_get_handler_mpu_acc_y
                0x0000000000002338        0xc obj_srf06-cc26xx/res-sensors.o
 .text.res_get_handler_mpu_acc_z
                0x0000000000002344        0xc obj_srf06-cc26xx/res-sensors.o
 .text.res_get_handler_mpu_gyro_x
                0x0000000000002350        0xc obj_srf06-cc26xx/res-sensors.o
 .text.res_get_handler_mpu_gyro_y
                0x000000000000235c        0xc obj_srf06-cc26xx/res-sensors.o
 .text.res_get_handler_mpu_gyro_z
                0x0000000000002368        0xc obj_srf06-cc26xx/res-sensors.o
 .text.res_get_handler_obj_temp
                0x0000000000002374        0xc obj_srf06-cc26xx/res-sensors.o
 .text.res_get_handler_amb_temp
                0x0000000000002380        0xc obj_srf06-cc26xx/res-sensors.o
 .text.res_get_handler_bmp_temp
                0x000000000000238c        0xc obj_srf06-cc26xx/res-sensors.o
 .text.res_get_handler_bmp_press
                0x0000000000002398        0xc obj_srf06-cc26xx/res-sensors.o
 .text.res_get_handler_hdc_temp
                0x00000000000023a4        0xc obj_srf06-cc26xx/res-sensors.o
 .text.res_get_handler_hdc_humidity
                0x00000000000023b0        0xc obj_srf06-cc26xx/res-sensors.o
 .text.res_get_handler_opt
                0x00000000000023bc        0xc obj_srf06-cc26xx/res-sensors.o
 .text.res_ble_post_put_handler
                0x00000000000023c8       0xf8 obj_srf06-cc26xx/res-ble-advd.o
 .text.res_get_handler_parent_rssi
                0x00000000000024c0       0xb8 obj_srf06-cc26xx/res-net.o
 .text.res_get_handler_pref_parent
                0x0000000000002578       0xc8 obj_srf06-cc26xx/res-net.o
 .text.process_thread_cetic_6lbr_client_process
                0x0000000000002640      0x1ec obj_srf06-cc26xx/cetic-6lbr-client.o
 .text.process_thread_coap_server_process
                0x000000000000282c      0x1c4 obj_srf06-cc26xx/coap-server.o
 .text.set_new_ip_address
                0x00000000000029f0       0x24 obj_srf06-cc26xx/net-uart.o
 .text.set_config_defaults
                0x0000000000002a14       0x50 obj_srf06-cc26xx/net-uart.o
 .text.process_thread_net_uart_process
                0x0000000000002a64      0x184 obj_srf06-cc26xx/net-uart.o
 .text.remote_ipv6_post_handler
                0x0000000000002be8       0x50 obj_srf06-cc26xx/net-uart.o
 .text.remote_port_post_handler
                0x0000000000002c38       0x44 obj_srf06-cc26xx/net-uart.o
 .text.on_off_post_handler
                0x0000000000002c7c       0x58 obj_srf06-cc26xx/net-uart.o
 .text.publish_led_off
                0x0000000000002cd4        0x8 obj_srf06-cc26xx/mqtt-client.o
 .text.init_config
                0x0000000000002cdc       0xa8 obj_srf06-cc26xx/mqtt-client.o
 .text.update_config
                0x0000000000002d84       0xe4 obj_srf06-cc26xx/mqtt-client.o
 .text.process_thread_mqtt_client_process
                0x0000000000002e68      0x4c0 obj_srf06-cc26xx/mqtt-client.o
 .text.mqtt_event
                0x0000000000003328       0xf4 obj_srf06-cc26xx/mqtt-client.o
 .text.new_net_config.part.2
                0x000000000000341c       0x24 obj_srf06-cc26xx/mqtt-client.o
 .text.org_id_post_handler
                0x0000000000003440       0x60 obj_srf06-cc26xx/mqtt-client.o
 .text.type_id_post_handler
                0x00000000000034a0       0x64 obj_srf06-cc26xx/mqtt-client.o
 .text.event_type_id_post_handler
                0x0000000000003504       0x64 obj_srf06-cc26xx/mqtt-client.o
 .text.cmd_type_post_handler
                0x0000000000003568       0x64 obj_srf06-cc26xx/mqtt-client.o
 .text.auth_token_post_handler
                0x00000000000035cc       0x64 obj_srf06-cc26xx/mqtt-client.o
 .text.reconnect_post_handler
                0x0000000000003630       0x34 obj_srf06-cc26xx/mqtt-client.o
 .text.ip_addr_post_handler
                0x0000000000003664       0x70 obj_srf06-cc26xx/mqtt-client.o
 .text.port_post_handler
                0x00000000000036d4       0x58 obj_srf06-cc26xx/mqtt-client.o
 .text.interval_post_handler
                0x000000000000372c       0x48 obj_srf06-cc26xx/mqtt-client.o
 .text.html_escape_quotes
                0x0000000000003774       0x74 obj_srf06-cc26xx/httpd-simple.o
 .text.enqueue_chunk
                0x00000000000037e8      0x114 obj_srf06-cc26xx/httpd-simple.o
 .text.generate_top_matter
                0x00000000000038fc      0x26c obj_srf06-cc26xx/httpd-simple.o
 .text.generate_mqtt_config
                0x0000000000003b68      0x834 obj_srf06-cc26xx/httpd-simple.o
 .text.generate_net_uart_config
                0x000000000000439c      0x3e8 obj_srf06-cc26xx/httpd-simple.o
 .text.send_headers
                0x0000000000004784      0x128 obj_srf06-cc26xx/httpd-simple.o
 .text.generate_config
                0x00000000000048ac      0x5ac obj_srf06-cc26xx/httpd-simple.o
 .text.generate_index
                0x0000000000004e58      0x534 obj_srf06-cc26xx/httpd-simple.o
 .text.send_string
                0x000000000000538c       0x44 obj_srf06-cc26xx/httpd-simple.o
 .text.handle_output
                0x00000000000053d0      0x2dc obj_srf06-cc26xx/httpd-simple.o
 .text.handle_input
                0x00000000000056ac      0x5dc obj_srf06-cc26xx/httpd-simple.o
 .text.process_thread_httpd_simple_process
                0x0000000000005c88      0x1a0 obj_srf06-cc26xx/httpd-simple.o
 .text.httpd_simple_register_post_handler
                0x0000000000005e28        0xc obj_srf06-cc26xx/httpd-simple.o
                0x0000000000005e28                httpd_simple_register_post_handler
 .text.coap_set_service_callback
                0x0000000000005e34        0xc contiki-srf06-cc26xx.a(er-coap-engine.)
                0x0000000000005e34                coap_set_service_callback
 .text.coap_get_rest_method
                0x0000000000005e40       0x10 contiki-srf06-cc26xx.a(er-coap-engine.)
                0x0000000000005e40                coap_get_rest_method
 .text.process_thread_coap_engine
                0x0000000000005e50      0x3c8 contiki-srf06-cc26xx.a(er-coap-engine.)
 .text.coap_init_engine
                0x0000000000006218        0xc contiki-srf06-cc26xx.a(er-coap-engine.)
                0x0000000000006218                coap_init_engine
 .text.coap_register_as_transaction_handler
                0x0000000000006224       0x14 contiki-srf06-cc26xx.a(er-coap-transac)
                0x0000000000006224                coap_register_as_transaction_handler
 .text.coap_new_transaction
                0x0000000000006238       0x48 contiki-srf06-cc26xx.a(er-coap-transac)
                0x0000000000006238                coap_new_transaction
 .text.coap_clear_transaction
                0x0000000000006280       0x2c contiki-srf06-cc26xx.a(er-coap-transac)
                0x0000000000006280                coap_clear_transaction
 .text.coap_send_transaction
                0x00000000000062ac       0xa0 contiki-srf06-cc26xx.a(er-coap-transac)
                0x00000000000062ac                coap_send_transaction
 .text.coap_get_transaction_by_mid
                0x000000000000634c       0x28 contiki-srf06-cc26xx.a(er-coap-transac)
                0x000000000000634c                coap_get_transaction_by_mid
 .text.coap_check_transactions
                0x0000000000006374       0x38 contiki-srf06-cc26xx.a(er-coap-transac)
                0x0000000000006374                coap_check_transactions
 .text.coap_remove_observer
                0x00000000000063ac       0x20 contiki-srf06-cc26xx.a(er-coap-observe)
                0x00000000000063ac                coap_remove_observer
 .text.coap_remove_observer_by_client
                0x00000000000063cc       0x44 contiki-srf06-cc26xx.a(er-coap-observe)
                0x00000000000063cc                coap_remove_observer_by_client
 .text.coap_remove_observer_by_token
                0x0000000000006410       0x6c contiki-srf06-cc26xx.a(er-coap-observe)
                0x0000000000006410                coap_remove_observer_by_token
 .text.coap_remove_observer_by_uri
                0x000000000000647c       0x70 contiki-srf06-cc26xx.a(er-coap-observe)
                0x000000000000647c                coap_remove_observer_by_uri
 .text.coap_remove_observer_by_mid
                0x00000000000064ec       0x58 contiki-srf06-cc26xx.a(er-coap-observe)
                0x00000000000064ec                coap_remove_observer_by_mid
 .text.coap_notify_observers_sub
                0x0000000000006544      0x140 contiki-srf06-cc26xx.a(er-coap-observe)
                0x0000000000006544                coap_notify_observers_sub
 .text.coap_notify_observers
                0x0000000000006684        0x8 contiki-srf06-cc26xx.a(er-coap-observe)
                0x0000000000006684                coap_notify_observers
 .text.coap_observe_handler
                0x000000000000668c      0x104 contiki-srf06-cc26xx.a(er-coap-observe)
                0x000000000000668c                coap_observe_handler
 .text.well_known_core_get_handler
                0x0000000000006790      0x19c contiki-srf06-cc26xx.a(er-coap-res-wel)
                0x0000000000006790                well_known_core_get_handler
 .text.process_thread_rest_engine_process
                0x000000000000692c       0xa0 contiki-srf06-cc26xx.a(rest-engine.o)
 .text.rest_invoke_restful_service
                0x00000000000069cc       0xf4 contiki-srf06-cc26xx.a(rest-engine.o)
                0x00000000000069cc                rest_invoke_restful_service
 .text.rest_init_engine
                0x0000000000006ac0       0x40 contiki-srf06-cc26xx.a(rest-engine.o)
                0x0000000000006ac0                rest_init_engine
 .text.rest_activate_resource
                0x0000000000006b00       0x5c contiki-srf06-cc26xx.a(rest-engine.o)
                0x0000000000006b00                rest_activate_resource
 .text.rest_get_resources
                0x0000000000006b5c        0x8 contiki-srf06-cc26xx.a(rest-engine.o)
                0x0000000000006b5c                rest_get_resources
 .text.call_event
                0x0000000000006b64       0x1c contiki-srf06-cc26xx.a(mqtt.o)
 .text.connect_tcp
                0x0000000000006b80       0x7c contiki-srf06-cc26xx.a(mqtt.o)
 .text.abort_connection
                0x0000000000006bfc       0x40 contiki-srf06-cc26xx.a(mqtt.o)
 .text.write_byte
                0x0000000000006c3c       0x40 contiki-srf06-cc26xx.a(mqtt.o)
 .text.write_bytes
                0x0000000000006c7c       0x6c contiki-srf06-cc26xx.a(mqtt.o)
 .text.handle_publish
                0x0000000000006ce8       0x38 contiki-srf06-cc26xx.a(mqtt.o)
 .text.tcp_input
                0x0000000000006d20      0x354 contiki-srf06-cc26xx.a(mqtt.o)
 .text.keep_alive_callback
                0x0000000000007074       0x40 contiki-srf06-cc26xx.a(mqtt.o)
 .text.tcp_event
                0x00000000000070b4       0x98 contiki-srf06-cc26xx.a(mqtt.o)
 .text.mqtt_init.part.4
                0x000000000000714c       0xac contiki-srf06-cc26xx.a(mqtt.o)
 .text.process_thread_mqtt_process
                0x00000000000071f8     0x14b8 contiki-srf06-cc26xx.a(mqtt.o)
 .text.mqtt_register
                0x00000000000086b0       0x88 contiki-srf06-cc26xx.a(mqtt.o)
                0x00000000000086b0                mqtt_register
 .text.mqtt_connect
                0x0000000000008738       0x68 contiki-srf06-cc26xx.a(mqtt.o)
                0x0000000000008738                mqtt_connect
 .text.mqtt_disconnect
                0x00000000000087a0       0x24 contiki-srf06-cc26xx.a(mqtt.o)
                0x00000000000087a0                mqtt_disconnect
 .text.mqtt_subscribe
                0x00000000000087c4       0x60 contiki-srf06-cc26xx.a(mqtt.o)
                0x00000000000087c4                mqtt_subscribe
 .text.mqtt_publish
                0x0000000000008824       0x80 contiki-srf06-cc26xx.a(mqtt.o)
                0x0000000000008824                mqtt_publish
 .text.mqtt_set_username_password
                0x00000000000088a4       0x64 contiki-srf06-cc26xx.a(mqtt.o)
                0x00000000000088a4                mqtt_set_username_password
 .text.fade     0x0000000000008908       0x64 contiki-srf06-cc26xx.a(contiki-main.o)
 .text.startup.main
                0x000000000000896c      0x24c contiki-srf06-cc26xx.a(contiki-main.o)
                0x000000000000896c                main
 .text.process_thread_sensors_process
                0x0000000000008bb8       0xf8 contiki-srf06-cc26xx.a(sensors.o)
 .text.sensors_changed
                0x0000000000008cb0       0x4c contiki-srf06-cc26xx.a(sensors.o)
                0x0000000000008cb0                sensors_changed
 .text.leds_init
                0x0000000000008cfc       0x14 contiki-srf06-cc26xx.a(leds.o)
                0x0000000000008cfc                leds_init
 .text.leds_on  0x0000000000008d10       0x14 contiki-srf06-cc26xx.a(leds.o)
                0x0000000000008d10                leds_on
 .text.leds_off
                0x0000000000008d24       0x14 contiki-srf06-cc26xx.a(leds.o)
                0x0000000000008d24                leds_off
 .text.leds_toggle
                0x0000000000008d38       0x14 contiki-srf06-cc26xx.a(leds.o)
                0x0000000000008d38                leds_toggle
 .text.leds_arch_init
                0x0000000000008d4c       0x38 contiki-srf06-cc26xx.a(leds-arch.o)
                0x0000000000008d4c                leds_arch_init
 .text.leds_arch_set
                0x0000000000008d84       0x34 contiki-srf06-cc26xx.a(leds-arch.o)
                0x0000000000008d84                leds_arch_set
 .text.status   0x0000000000008db8       0x14 contiki-srf06-cc26xx.a(bmp-280-sensor.)
 .text.notify_ready
                0x0000000000008dcc       0x14 contiki-srf06-cc26xx.a(bmp-280-sensor.)
 .text.enable_sensor
                0x0000000000008de0       0x2c contiki-srf06-cc26xx.a(bmp-280-sensor.)
 .text.configure
                0x0000000000008e0c       0x94 contiki-srf06-cc26xx.a(bmp-280-sensor.)
 .text.value    0x0000000000008ea0      0x178 contiki-srf06-cc26xx.a(bmp-280-sensor.)
 .text.status   0x0000000000009018       0x14 contiki-srf06-cc26xx.a(tmp-007-sensor.)
 .text.notify_ready
                0x000000000000902c       0x14 contiki-srf06-cc26xx.a(tmp-007-sensor.)
 .text.enable_sensor
                0x0000000000009040       0x2c contiki-srf06-cc26xx.a(tmp-007-sensor.)
 .text.configure
                0x000000000000906c       0x94 contiki-srf06-cc26xx.a(tmp-007-sensor.)
 .text.value    0x0000000000009100       0xf0 contiki-srf06-cc26xx.a(tmp-007-sensor.)
 .text.status   0x00000000000091f0        0xc contiki-srf06-cc26xx.a(opt-3001-sensor)
 .text.enable_sensor
                0x00000000000091fc       0x44 contiki-srf06-cc26xx.a(opt-3001-sensor)
 .text.notify_ready
                0x0000000000009240       0x54 contiki-srf06-cc26xx.a(opt-3001-sensor)
 .text.configure
                0x0000000000009294       0x4c contiki-srf06-cc26xx.a(opt-3001-sensor)
 .text.status   0x00000000000092e0       0x14 contiki-srf06-cc26xx.a(hdc-1000-sensor)
 .text.notify_ready
                0x00000000000092f4       0x68 contiki-srf06-cc26xx.a(hdc-1000-sensor)
 .text.configure
                0x000000000000935c       0xb8 contiki-srf06-cc26xx.a(hdc-1000-sensor)
 .text.acc_convert
                0x0000000000009414       0x70 contiki-srf06-cc26xx.a(mpu-9250-sensor)
 .text.status   0x0000000000009484       0x14 contiki-srf06-cc26xx.a(mpu-9250-sensor)
 .text.notify_ready
                0x0000000000009498       0x14 contiki-srf06-cc26xx.a(mpu-9250-sensor)
 .text.sensor_sleep
                0x00000000000094ac       0x38 contiki-srf06-cc26xx.a(mpu-9250-sensor)
 .text.configure
                0x00000000000094e4       0xdc contiki-srf06-cc26xx.a(mpu-9250-sensor)
 .text.int_status
                0x00000000000095c0       0x28 contiki-srf06-cc26xx.a(mpu-9250-sensor)
 .text.initialise
                0x00000000000095e8      0x100 contiki-srf06-cc26xx.a(mpu-9250-sensor)
 .text.status.part.0
                0x00000000000096e8       0x14 contiki-srf06-cc26xx.a(button-sensor.o)
 .text.value_left
                0x00000000000096fc       0x24 contiki-srf06-cc26xx.a(button-sensor.o)
 .text.value_right
                0x0000000000009720       0x18 contiki-srf06-cc26xx.a(button-sensor.o)
 .text.status_left
                0x0000000000009738       0x10 contiki-srf06-cc26xx.a(button-sensor.o)
 .text.status_right
                0x0000000000009748       0x10 contiki-srf06-cc26xx.a(button-sensor.o)
 .text.config_buttons
                0x0000000000009758       0x84 contiki-srf06-cc26xx.a(button-sensor.o)
 .text.config_left
                0x00000000000097dc        0xc contiki-srf06-cc26xx.a(button-sensor.o)
 .text.config_right
                0x00000000000097e8        0xc contiki-srf06-cc26xx.a(button-sensor.o)
 .text.button_press_handler
                0x00000000000097f4       0x64 contiki-srf06-cc26xx.a(button-sensor.o)
 .text.value    0x0000000000009858       0x10 contiki-srf06-cc26xx.a(reed-relay.o)
 .text.status   0x0000000000009868       0x20 contiki-srf06-cc26xx.a(reed-relay.o)
 .text.configure
                0x0000000000009888       0x6c contiki-srf06-cc26xx.a(reed-relay.o)
 .text.reed_interrupt_handler
                0x00000000000098f4       0x28 contiki-srf06-cc26xx.a(reed-relay.o)
 .text.verify_part
                0x000000000000991c       0x80 contiki-srf06-cc26xx.a(ext-flash.o)
 .text.wait_ready
                0x000000000000999c       0x64 contiki-srf06-cc26xx.a(ext-flash.o)
 .text.power_down
                0x0000000000009a00       0x50 contiki-srf06-cc26xx.a(ext-flash.o)
 .text.ext_flash_open
                0x0000000000009a50       0x60 contiki-srf06-cc26xx.a(ext-flash.o)
                0x0000000000009a50                ext_flash_open
 .text.ext_flash_close
                0x0000000000009ab0       0x10 contiki-srf06-cc26xx.a(ext-flash.o)
                0x0000000000009ab0                ext_flash_close
 .text.ext_flash_read
                0x0000000000009ac0       0x58 contiki-srf06-cc26xx.a(ext-flash.o)
                0x0000000000009ac0                ext_flash_read
 .text.ext_flash_write
                0x0000000000009b18       0xb4 contiki-srf06-cc26xx.a(ext-flash.o)
                0x0000000000009b18                ext_flash_write
 .text.ext_flash_erase
                0x0000000000009bcc       0x9c contiki-srf06-cc26xx.a(ext-flash.o)
                0x0000000000009bcc                ext_flash_erase
 .text.ext_flash_init
                0x0000000000009c68       0x14 contiki-srf06-cc26xx.a(ext-flash.o)
                0x0000000000009c68                ext_flash_init
 .text.buzzer_init
                0x0000000000009c7c        0xc contiki-srf06-cc26xx.a(buzzer.o)
                0x0000000000009c7c                buzzer_init
 .text.buzzer_start
                0x0000000000009c88       0xa4 contiki-srf06-cc26xx.a(buzzer.o)
                0x0000000000009c88                buzzer_start
 .text.buzzer_stop
                0x0000000000009d2c       0x74 contiki-srf06-cc26xx.a(buzzer.o)
                0x0000000000009d2c                buzzer_stop
 .text.power_domains_on
                0x0000000000009da0       0x20 contiki-srf06-cc26xx.a(board.o)
 .text.lpm_wakeup_handler
                0x0000000000009dc0        0x4 contiki-srf06-cc26xx.a(board.o)
 .text.shutdown_handler
                0x0000000000009dc4       0x68 contiki-srf06-cc26xx.a(board.o)
 .text.board_init
                0x0000000000009e2c      0x118 contiki-srf06-cc26xx.a(board.o)
                0x0000000000009e2c                board_init
 .text.accessible
                0x0000000000009f44       0x24 contiki-srf06-cc26xx.a(board-spi.o)
 .text.board_spi_write
                0x0000000000009f68       0x3c contiki-srf06-cc26xx.a(board-spi.o)
                0x0000000000009f68                board_spi_write
 .text.board_spi_read
                0x0000000000009fa4       0x48 contiki-srf06-cc26xx.a(board-spi.o)
                0x0000000000009fa4                board_spi_read
 .text.board_spi_flush
                0x0000000000009fec       0x24 contiki-srf06-cc26xx.a(board-spi.o)
                0x0000000000009fec                board_spi_flush
 .text.board_spi_open
                0x000000000000a010       0xbc contiki-srf06-cc26xx.a(board-spi.o)
                0x000000000000a010                board_spi_open
 .text.board_spi_close
                0x000000000000a0cc       0x70 contiki-srf06-cc26xx.a(board-spi.o)
                0x000000000000a0cc                board_spi_close
 .text.i2c_status
                0x000000000000a13c       0x34 contiki-srf06-cc26xx.a(board-i2c.o)
 .text.accessible
                0x000000000000a170       0x24 contiki-srf06-cc26xx.a(board-i2c.o)
 .text.board_i2c_wakeup
                0x000000000000a194       0x5c contiki-srf06-cc26xx.a(board-i2c.o)
                0x000000000000a194                board_i2c_wakeup
 .text.board_i2c_shutdown
                0x000000000000a1f0       0xa4 contiki-srf06-cc26xx.a(board-i2c.o)
                0x000000000000a1f0                board_i2c_shutdown
 .text.board_i2c_write
                0x000000000000a294      0x138 contiki-srf06-cc26xx.a(board-i2c.o)
                0x000000000000a294                board_i2c_write
 .text.board_i2c_write_single
                0x000000000000a3cc       0x70 contiki-srf06-cc26xx.a(board-i2c.o)
                0x000000000000a3cc                board_i2c_write_single
 .text.board_i2c_read
                0x000000000000a43c      0x118 contiki-srf06-cc26xx.a(board-i2c.o)
                0x000000000000a43c                board_i2c_read
 .text.board_i2c_write_read
                0x000000000000a554      0x1c0 contiki-srf06-cc26xx.a(board-i2c.o)
                0x000000000000a554                board_i2c_write_read
 .text.board_i2c_select
                0x000000000000a714       0xdc contiki-srf06-cc26xx.a(board-i2c.o)
                0x000000000000a714                board_i2c_select
 .text.power_domain_on
                0x000000000000a7f0       0x20 contiki-srf06-cc26xx.a(clock.o)
 .text.clock_init
                0x000000000000a810       0x98 contiki-srf06-cc26xx.a(clock.o)
                0x000000000000a810                clock_init
 .text.clock_time
                0x000000000000a8a8       0x34 contiki-srf06-cc26xx.a(clock.o)
                0x000000000000a8a8                clock_time
 .text.clock_update
                0x000000000000a8dc       0x3c contiki-srf06-cc26xx.a(clock.o)
                0x000000000000a8dc                clock_update
 .text.clock_seconds
                0x000000000000a918       0x18 contiki-srf06-cc26xx.a(clock.o)
                0x000000000000a918                clock_seconds
 .text.rtimer_arch_init
                0x000000000000a930        0x4 contiki-srf06-cc26xx.a(rtimer-arch.o)
                0x000000000000a930                rtimer_arch_init
 .text.rtimer_arch_schedule
                0x000000000000a934        0x8 contiki-srf06-cc26xx.a(rtimer-arch.o)
                0x000000000000a934                rtimer_arch_schedule
 .text.rtimer_arch_now
                0x000000000000a93c        0x4 contiki-srf06-cc26xx.a(rtimer-arch.o)
                0x000000000000a93c                rtimer_arch_now
 .text.soc_rtc_init
                0x000000000000a940       0xa0 contiki-srf06-cc26xx.a(soc-rtc.o)
                0x000000000000a940                soc_rtc_init
 .text.soc_rtc_schedule_one_shot
                0x000000000000a9e0       0x6c contiki-srf06-cc26xx.a(soc-rtc.o)
                0x000000000000a9e0                soc_rtc_schedule_one_shot
 .text.soc_rtc_last_isr_time
                0x000000000000aa4c        0xc contiki-srf06-cc26xx.a(soc-rtc.o)
                0x000000000000aa4c                soc_rtc_last_isr_time
 .text.AONRTCIntHandler
                0x000000000000aa58       0x88 contiki-srf06-cc26xx.a(soc-rtc.o)
                0x000000000000aa58                AONRTCIntHandler
 .text.watchdog_init
                0x000000000000aae0       0x1c contiki-srf06-cc26xx.a(contiki-watchdo)
                0x000000000000aae0                watchdog_init
 .text.watchdog_start
                0x000000000000aafc       0x68 contiki-srf06-cc26xx.a(contiki-watchdo)
                0x000000000000aafc                watchdog_start
 .text.watchdog_periodic
                0x000000000000ab64       0x1c contiki-srf06-cc26xx.a(contiki-watchdo)
                0x000000000000ab64                watchdog_periodic
 .text.putchar  0x000000000000ab80       0x10 contiki-srf06-cc26xx.a(putchar.o)
                0x000000000000ab80                putchar
 .text.puts     0x000000000000ab90       0x30 contiki-srf06-cc26xx.a(putchar.o)
                0x000000000000ab90                puts
 .text.dbg_send_bytes
                0x000000000000abc0       0x40 contiki-srf06-cc26xx.a(putchar.o)
                0x000000000000abc0                dbg_send_bytes
 .text.ieee_addr_cpy_to
                0x000000000000ac00       0x40 contiki-srf06-cc26xx.a(ieee-addr.o)
                0x000000000000ac00                ieee_addr_cpy_to
 .text.configure
                0x000000000000ac40       0x34 contiki-srf06-cc26xx.a(batmon-sensor.o)
 .text.status   0x000000000000ac74       0x14 contiki-srf06-cc26xx.a(batmon-sensor.o)
 .text.value    0x000000000000ac88       0x24 contiki-srf06-cc26xx.a(batmon-sensor.o)
 .text.power_and_clock
                0x000000000000acac       0x40 contiki-srf06-cc26xx.a(cc26xx-uart.o)
 .text.enable   0x000000000000acec       0xf4 contiki-srf06-cc26xx.a(cc26xx-uart.o)
 .text.accessible
                0x000000000000ade0       0x24 contiki-srf06-cc26xx.a(cc26xx-uart.o)
 .text.lpm_drop_handler
                0x000000000000ae04       0xcc contiki-srf06-cc26xx.a(cc26xx-uart.o)
 .text.cc26xx_uart_init
                0x000000000000aed0       0x28 contiki-srf06-cc26xx.a(cc26xx-uart.o)
                0x000000000000aed0                cc26xx_uart_init
 .text.cc26xx_uart_write_byte
                0x000000000000aef8       0x28 contiki-srf06-cc26xx.a(cc26xx-uart.o)
                0x000000000000aef8                cc26xx_uart_write_byte
 .text.cc26xx_uart_set_input
                0x000000000000af20       0x64 contiki-srf06-cc26xx.a(cc26xx-uart.o)
                0x000000000000af20                cc26xx_uart_set_input
 .text.cc26xx_uart_busy
                0x000000000000af84       0x18 contiki-srf06-cc26xx.a(cc26xx-uart.o)
                0x000000000000af84                cc26xx_uart_busy
 .text.UART0IntHandler
                0x000000000000af9c       0x54 contiki-srf06-cc26xx.a(cc26xx-uart.o)
                0x000000000000af9c                UART0IntHandler
 .text.lpm_shutdown
                0x000000000000aff0      0x198 contiki-srf06-cc26xx.a(lpm.o)
                0x000000000000aff0                lpm_shutdown
 .text.lpm_sleep
                0x000000000000b188       0x14 contiki-srf06-cc26xx.a(lpm.o)
                0x000000000000b188                lpm_sleep
 .text.lpm_drop
                0x000000000000b19c      0x258 contiki-srf06-cc26xx.a(lpm.o)
                0x000000000000b19c                lpm_drop
 .text.lpm_register_module
                0x000000000000b3f4        0xc contiki-srf06-cc26xx.a(lpm.o)
                0x000000000000b3f4                lpm_register_module
 .text.lpm_unregister_module
                0x000000000000b400        0xc contiki-srf06-cc26xx.a(lpm.o)
                0x000000000000b400                lpm_unregister_module
 .text.lpm_init
                0x000000000000b40c       0x20 contiki-srf06-cc26xx.a(lpm.o)
                0x000000000000b40c                lpm_init
 .text.lpm_pin_set_default_state
                0x000000000000b42c       0x2c contiki-srf06-cc26xx.a(lpm.o)
                0x000000000000b42c                lpm_pin_set_default_state
 .text.gpio_interrupt_register_handler
                0x000000000000b458       0x2c contiki-srf06-cc26xx.a(gpio-interrupt.)
                0x000000000000b458                gpio_interrupt_register_handler
 .text.gpio_interrupt_init
                0x000000000000b484       0x24 contiki-srf06-cc26xx.a(gpio-interrupt.)
                0x000000000000b484                gpio_interrupt_init
 .text.GPIOIntHandler
                0x000000000000b4a8       0x30 contiki-srf06-cc26xx.a(gpio-interrupt.)
                0x000000000000b4a8                GPIOIntHandler
 .text.oscillators_select_lf_xosc
                0x000000000000b4d8       0x50 contiki-srf06-cc26xx.a(oscillators.o)
                0x000000000000b4d8                oscillators_select_lf_xosc
 .text.oscillators_select_lf_rcosc
                0x000000000000b528       0x3c contiki-srf06-cc26xx.a(oscillators.o)
                0x000000000000b528                oscillators_select_lf_rcosc
 .text.oscillators_request_hf_xosc
                0x000000000000b564       0x30 contiki-srf06-cc26xx.a(oscillators.o)
                0x000000000000b564                oscillators_request_hf_xosc
 .text.oscillators_switch_to_hf_xosc
                0x000000000000b594       0x34 contiki-srf06-cc26xx.a(oscillators.o)
                0x000000000000b594                oscillators_switch_to_hf_xosc
 .text.oscillators_switch_to_hf_rc
                0x000000000000b5c8       0x38 contiki-srf06-cc26xx.a(oscillators.o)
                0x000000000000b5c8                oscillators_switch_to_hf_rc
 .text.process_thread_rf_ble_beacon_process
                0x000000000000b600      0x248 contiki-srf06-cc26xx.a(rf-ble.o)
 .text.rf_ble_beacond_config
                0x000000000000b848       0x44 contiki-srf06-cc26xx.a(rf-ble.o)
                0x000000000000b848                rf_ble_beacond_config
 .text.rf_ble_beacond_start
                0x000000000000b88c       0x38 contiki-srf06-cc26xx.a(rf-ble.o)
                0x000000000000b88c                rf_ble_beacond_start
 .text.rf_ble_is_active
                0x000000000000b8c4        0xc contiki-srf06-cc26xx.a(rf-ble.o)
                0x000000000000b8c4                rf_ble_is_active
 .text.rf_ble_beacond_stop
                0x000000000000b8d0        0xc contiki-srf06-cc26xx.a(rf-ble.o)
                0x000000000000b8d0                rf_ble_beacond_stop
 .text.request  0x000000000000b8dc       0x20 contiki-srf06-cc26xx.a(ieee-mode.o)
 .text.rx_on    0x000000000000b8fc       0x60 contiki-srf06-cc26xx.a(ieee-mode.o)
 .text.prepare  0x000000000000b95c       0x1c contiki-srf06-cc26xx.a(ieee-mode.o)
 .text.rf_radio_setup
                0x000000000000b978       0x64 contiki-srf06-cc26xx.a(ieee-mode.o)
 .text.soft_on  0x000000000000b9dc       0x18 contiki-srf06-cc26xx.a(ieee-mode.o)
 .text.pending_packet
                0x000000000000b9f4       0x48 contiki-srf06-cc26xx.a(ieee-mode.o)
 .text.soft_off
                0x000000000000ba3c       0x44 contiki-srf06-cc26xx.a(ieee-mode.o)
 .text.get_object
                0x000000000000ba80       0x4c contiki-srf06-cc26xx.a(ieee-mode.o)
 .text.transmitting.part.1
                0x000000000000bacc       0x40 contiki-srf06-cc26xx.a(ieee-mode.o)
 .text.rx_off   0x000000000000bb0c       0x74 contiki-srf06-cc26xx.a(ieee-mode.o)
 .text.set_object
                0x000000000000bb80       0x60 contiki-srf06-cc26xx.a(ieee-mode.o)
 .text.get_cca_info
                0x000000000000bbe0       0x50 contiki-srf06-cc26xx.a(ieee-mode.o)
 .text.check_rat_overflow
                0x000000000000bc30       0x80 contiki-srf06-cc26xx.a(ieee-mode.o)
 .text.receiving_packet
                0x000000000000bcb0       0x3c contiki-srf06-cc26xx.a(ieee-mode.o)
 .text.off.part.7
                0x000000000000bcec       0x6c contiki-srf06-cc26xx.a(ieee-mode.o)
 .text.off      0x000000000000bd58       0x14 contiki-srf06-cc26xx.a(ieee-mode.o)
 .text.on       0x000000000000bd6c       0xa8 contiki-srf06-cc26xx.a(ieee-mode.o)
 .text.set_value
                0x000000000000be14      0x178 contiki-srf06-cc26xx.a(ieee-mode.o)
 .text.get_value
                0x000000000000bf8c      0x188 contiki-srf06-cc26xx.a(ieee-mode.o)
 .text.transmit
                0x000000000000c114      0x114 contiki-srf06-cc26xx.a(ieee-mode.o)
 .text.send     0x000000000000c228       0x24 contiki-srf06-cc26xx.a(ieee-mode.o)
 .text.channel_clear
                0x000000000000c24c       0x84 contiki-srf06-cc26xx.a(ieee-mode.o)
 .text.read_frame
                0x000000000000c2d0      0x190 contiki-srf06-cc26xx.a(ieee-mode.o)
 .text.handle_rat_overflow
                0x000000000000c460       0x68 contiki-srf06-cc26xx.a(ieee-mode.o)
 .text.init     0x000000000000c4c8       0xfc contiki-srf06-cc26xx.a(ieee-mode.o)
 .text.random_rand
                0x000000000000c5c4        0xc contiki-srf06-cc26xx.a(random.o)
                0x000000000000c5c4                random_rand
 .text.random_init
                0x000000000000c5d0        0x4 contiki-srf06-cc26xx.a(random.o)
                0x000000000000c5d0                random_init
 .text.power_up
                0x000000000000c5d4       0x40 contiki-srf06-cc26xx.a(soc-trng.o)
 .text.request  0x000000000000c614       0x14 contiki-srf06-cc26xx.a(soc-trng.o)
 .text.process_thread_soc_trng_process
                0x000000000000c628       0x94 contiki-srf06-cc26xx.a(soc-trng.o)
 .text.accessible
                0x000000000000c6bc       0x24 contiki-srf06-cc26xx.a(soc-trng.o)
 .text.soc_trng_rand_synchronous
                0x000000000000c6e0       0xc4 contiki-srf06-cc26xx.a(soc-trng.o)
                0x000000000000c6e0                soc_trng_rand_synchronous
 .text.TRNGIntHandler
                0x000000000000c7a4       0x50 contiki-srf06-cc26xx.a(soc-trng.o)
                0x000000000000c7a4                TRNGIntHandler
 .text.soc_trng_init
                0x000000000000c7f4       0x28 contiki-srf06-cc26xx.a(soc-trng.o)
                0x000000000000c7f4                soc_trng_init
 .text.write_str
                0x000000000000c81c       0x14 contiki-srf06-cc26xx.a(dbg-printf.o)
 .text.printf   0x000000000000c830       0x24 contiki-srf06-cc26xx.a(dbg-printf.o)
                0x000000000000c830                printf
 .text.buffer_str
                0x000000000000c854       0x28 contiki-srf06-cc26xx.a(dbg-snprintf.o)
 .text.snprintf
                0x000000000000c87c       0x38 contiki-srf06-cc26xx.a(dbg-snprintf.o)
                0x000000000000c87c                snprintf
 .text.vsnprintf
                0x000000000000c8b4       0x2c contiki-srf06-cc26xx.a(dbg-snprintf.o)
                0x000000000000c8b4                vsnprintf
 .text.buffer_str
                0x000000000000c8e0       0x18 contiki-srf06-cc26xx.a(dbg-sprintf.o)
 .text.sprintf  0x000000000000c8f8       0x34 contiki-srf06-cc26xx.a(dbg-sprintf.o)
                0x000000000000c8f8                sprintf
 .text.fill_space
                0x000000000000c92c       0x3c contiki-srf06-cc26xx.a(strformat.o)
 .text.format_str_v
                0x000000000000c968      0x95c contiki-srf06-cc26xx.a(strformat.o)
                0x000000000000c968                format_str_v
 .text.autostart_start
                0x000000000000d2c4       0x18 contiki-srf06-cc26xx.a(autostart.o)
                0x000000000000d2c4                autostart_start
 .text.energest_init
                0x000000000000d2dc        0x4 contiki-srf06-cc26xx.a(energest.o)
                0x000000000000d2dc                energest_init
 .text.update_time
                0x000000000000d2e0       0x44 contiki-srf06-cc26xx.a(etimer.o)
 .text.process_thread_etimer_process
                0x000000000000d324       0xc8 contiki-srf06-cc26xx.a(etimer.o)
 .text.add_timer
                0x000000000000d3ec       0x54 contiki-srf06-cc26xx.a(etimer.o)
 .text.etimer_request_poll
                0x000000000000d440        0xc contiki-srf06-cc26xx.a(etimer.o)
                0x000000000000d440                etimer_request_poll
 .text.etimer_set
                0x000000000000d44c       0x14 contiki-srf06-cc26xx.a(etimer.o)
                0x000000000000d44c                etimer_set
 .text.etimer_reset
                0x000000000000d460       0x14 contiki-srf06-cc26xx.a(etimer.o)
                0x000000000000d460                etimer_reset
 .text.etimer_restart
                0x000000000000d474       0x14 contiki-srf06-cc26xx.a(etimer.o)
                0x000000000000d474                etimer_restart
 .text.etimer_expired
                0x000000000000d488        0xc contiki-srf06-cc26xx.a(etimer.o)
                0x000000000000d488                etimer_expired
 .text.etimer_expiration_time
                0x000000000000d494        0x8 contiki-srf06-cc26xx.a(etimer.o)
                0x000000000000d494                etimer_expiration_time
 .text.etimer_pending
                0x000000000000d49c       0x10 contiki-srf06-cc26xx.a(etimer.o)
                0x000000000000d49c                etimer_pending
 .text.etimer_next_expiration_time
                0x000000000000d4ac       0x14 contiki-srf06-cc26xx.a(etimer.o)
                0x000000000000d4ac                etimer_next_expiration_time
 .text.etimer_stop
                0x000000000000d4c0       0x44 contiki-srf06-cc26xx.a(etimer.o)
                0x000000000000d4c0                etimer_stop
 .text.process_thread_ctimer_process
                0x000000000000d504       0x94 contiki-srf06-cc26xx.a(ctimer.o)
 .text.ctimer_init
                0x000000000000d598       0x28 contiki-srf06-cc26xx.a(ctimer.o)
                0x000000000000d598                ctimer_init
 .text.ctimer_set_with_process
                0x000000000000d5c0       0x4c contiki-srf06-cc26xx.a(ctimer.o)
                0x000000000000d5c0                ctimer_set_with_process
 .text.ctimer_set
                0x000000000000d60c       0x18 contiki-srf06-cc26xx.a(ctimer.o)
                0x000000000000d60c                ctimer_set
 .text.ctimer_reset
                0x000000000000d624       0x38 contiki-srf06-cc26xx.a(ctimer.o)
                0x000000000000d624                ctimer_reset
 .text.ctimer_restart
                0x000000000000d65c       0x38 contiki-srf06-cc26xx.a(ctimer.o)
                0x000000000000d65c                ctimer_restart
 .text.ctimer_stop
                0x000000000000d694       0x34 contiki-srf06-cc26xx.a(ctimer.o)
                0x000000000000d694                ctimer_stop
 .text.exit_process
                0x000000000000d6c8       0xb0 contiki-srf06-cc26xx.a(process.o)
 .text.call_process.part.0
                0x000000000000d778       0x38 contiki-srf06-cc26xx.a(process.o)
 .text.do_poll  0x000000000000d7b0       0x3c contiki-srf06-cc26xx.a(process.o)
 .text.process_alloc_event
                0x000000000000d7ec       0x10 contiki-srf06-cc26xx.a(process.o)
                0x000000000000d7ec                process_alloc_event
 .text.process_start
                0x000000000000d7fc       0x48 contiki-srf06-cc26xx.a(process.o)
                0x000000000000d7fc                process_start
 .text.process_exit
                0x000000000000d844        0xc contiki-srf06-cc26xx.a(process.o)
                0x000000000000d844                process_exit
 .text.process_init
                0x000000000000d850       0x34 contiki-srf06-cc26xx.a(process.o)
                0x000000000000d850                process_init
 .text.process_run
                0x000000000000d884       0xa8 contiki-srf06-cc26xx.a(process.o)
                0x000000000000d884                process_run
 .text.process_nevents
                0x000000000000d92c       0x14 contiki-srf06-cc26xx.a(process.o)
                0x000000000000d92c                process_nevents
 .text.process_post
                0x000000000000d940       0x40 contiki-srf06-cc26xx.a(process.o)
                0x000000000000d940                process_post
 .text.process_post_synch
                0x000000000000d980       0x18 contiki-srf06-cc26xx.a(process.o)
                0x000000000000d980                process_post_synch
 .text.process_poll
                0x000000000000d998       0x18 contiki-srf06-cc26xx.a(process.o)
                0x000000000000d998                process_poll
 .text.process_is_running
                0x000000000000d9b0        0xc contiki-srf06-cc26xx.a(process.o)
                0x000000000000d9b0                process_is_running
 .text.rtimer_init
                0x000000000000d9bc        0x4 contiki-srf06-cc26xx.a(rtimer.o)
                0x000000000000d9bc                rtimer_init
 .text.rtimer_set
                0x000000000000d9c0       0x2c contiki-srf06-cc26xx.a(rtimer.o)
                0x000000000000d9c0                rtimer_set
 .text.rtimer_run_next
                0x000000000000d9ec       0x28 contiki-srf06-cc26xx.a(rtimer.o)
                0x000000000000d9ec                rtimer_run_next
 .text.timer_set
                0x000000000000da14       0x10 contiki-srf06-cc26xx.a(timer.o)
                0x000000000000da14                timer_set
 .text.timer_reset
                0x000000000000da24        0xc contiki-srf06-cc26xx.a(timer.o)
                0x000000000000da24                timer_reset
 .text.timer_restart
                0x000000000000da30        0xc contiki-srf06-cc26xx.a(timer.o)
                0x000000000000da30                timer_restart
 .text.timer_expired
                0x000000000000da3c       0x1c contiki-srf06-cc26xx.a(timer.o)
                0x000000000000da3c                timer_expired
 .text.process_thread_serial_line_process
                0x000000000000da58       0xa8 contiki-srf06-cc26xx.a(serial-line.o)
 .text.serial_line_input_byte
                0x000000000000db00       0x54 contiki-srf06-cc26xx.a(serial-line.o)
                0x000000000000db00                serial_line_input_byte
 .text.serial_line_init
                0x000000000000db54       0x24 contiki-srf06-cc26xx.a(serial-line.o)
                0x000000000000db54                serial_line_init
 .text.ringbuf_init
                0x000000000000db78       0x10 contiki-srf06-cc26xx.a(ringbuf.o)
                0x000000000000db78                ringbuf_init
 .text.ringbuf_put
                0x000000000000db88       0x2c contiki-srf06-cc26xx.a(ringbuf.o)
                0x000000000000db88                ringbuf_put
 .text.ringbuf_get
                0x000000000000dbb4       0x24 contiki-srf06-cc26xx.a(ringbuf.o)
                0x000000000000dbb4                ringbuf_get
 .text.list_init
                0x000000000000dbd8        0x8 contiki-srf06-cc26xx.a(list.o)
                0x000000000000dbd8                list_init
 .text.list_head
                0x000000000000dbe0        0x4 contiki-srf06-cc26xx.a(list.o)
                0x000000000000dbe0                list_head
 .text.list_add
                0x000000000000dbe4       0x5c contiki-srf06-cc26xx.a(list.o)
                0x000000000000dbe4                list_add
 .text.list_push
                0x000000000000dc40       0x48 contiki-srf06-cc26xx.a(list.o)
                0x000000000000dc40                list_push
 .text.list_remove
                0x000000000000dc88       0x38 contiki-srf06-cc26xx.a(list.o)
                0x000000000000dc88                list_remove
 .text.list_length
                0x000000000000dcc0       0x14 contiki-srf06-cc26xx.a(list.o)
                0x000000000000dcc0                list_length
 .text.list_item_next
                0x000000000000dcd4        0x8 contiki-srf06-cc26xx.a(list.o)
                0x000000000000dcd4                list_item_next
 .text.memb_init
                0x000000000000dcdc       0x24 contiki-srf06-cc26xx.a(memb.o)
                0x000000000000dcdc                memb_init
 .text.memb_alloc
                0x000000000000dd00       0x3c contiki-srf06-cc26xx.a(memb.o)
                0x000000000000dd00                memb_alloc
 .text.memb_free
                0x000000000000dd3c       0x3c contiki-srf06-cc26xx.a(memb.o)
                0x000000000000dd3c                memb_free
 .text.memb_inmemb
                0x000000000000dd78       0x1c contiki-srf06-cc26xx.a(memb.o)
                0x000000000000dd78                memb_inmemb
 .text.memb_numfree
                0x000000000000dd94       0x1c contiki-srf06-cc26xx.a(memb.o)
                0x000000000000dd94                memb_numfree
 .text.echo_reply_input
                0x000000000000ddb0       0xac contiki-srf06-cc26xx.a(uip-icmp6.o)
 .text.echo_request_input
                0x000000000000de5c       0xb0 contiki-srf06-cc26xx.a(uip-icmp6.o)
 .text.uip_icmp6_input
                0x000000000000df0c       0x3c contiki-srf06-cc26xx.a(uip-icmp6.o)
                0x000000000000df0c                uip_icmp6_input
 .text.uip_icmp6_register_input_handler
                0x000000000000df48        0xc contiki-srf06-cc26xx.a(uip-icmp6.o)
                0x000000000000df48                uip_icmp6_register_input_handler
 .text.uip_icmp6_error_output
                0x000000000000df54      0x158 contiki-srf06-cc26xx.a(uip-icmp6.o)
                0x000000000000df54                uip_icmp6_error_output
 .text.uip_icmp6_send
                0x000000000000e0ac       0x80 contiki-srf06-cc26xx.a(uip-icmp6.o)
                0x000000000000e0ac                uip_icmp6_send
 .text.uip_icmp6_echo_reply_callback_add
                0x000000000000e12c       0x14 contiki-srf06-cc26xx.a(uip-icmp6.o)
                0x000000000000e12c                uip_icmp6_echo_reply_callback_add
 .text.uip_icmp6_init
                0x000000000000e140       0x24 contiki-srf06-cc26xx.a(uip-icmp6.o)
                0x000000000000e140                uip_icmp6_init
 .text.uip_ds6_list_loop
                0x000000000000e164       0x5c contiki-srf06-cc26xx.a(uip-ds6.o)
                0x000000000000e164                uip_ds6_list_loop
 .text.uip_ds6_prefix_add
                0x000000000000e1c0       0x6c contiki-srf06-cc26xx.a(uip-ds6.o)
                0x000000000000e1c0                uip_ds6_prefix_add
 .text.uip_ds6_is_addr_onlink
                0x000000000000e22c       0x40 contiki-srf06-cc26xx.a(uip-ds6.o)
                0x000000000000e22c                uip_ds6_is_addr_onlink
 .text.uip_ds6_addr_lookup
                0x000000000000e26c       0x30 contiki-srf06-cc26xx.a(uip-ds6.o)
                0x000000000000e26c                uip_ds6_addr_lookup
 .text.uip_ds6_get_link_local
                0x000000000000e29c       0x50 contiki-srf06-cc26xx.a(uip-ds6.o)
                0x000000000000e29c                uip_ds6_get_link_local
 .text.uip_ds6_get_global
                0x000000000000e2ec       0x50 contiki-srf06-cc26xx.a(uip-ds6.o)
                0x000000000000e2ec                uip_ds6_get_global
 .text.uip_ds6_maddr_add
                0x000000000000e33c       0x50 contiki-srf06-cc26xx.a(uip-ds6.o)
                0x000000000000e33c                uip_ds6_maddr_add
 .text.uip_ds6_addr_add
                0x000000000000e38c       0xa8 contiki-srf06-cc26xx.a(uip-ds6.o)
                0x000000000000e38c                uip_ds6_addr_add
 .text.uip_ds6_maddr_lookup
                0x000000000000e434       0x30 contiki-srf06-cc26xx.a(uip-ds6.o)
                0x000000000000e434                uip_ds6_maddr_lookup
 .text.uip_ds6_addr_rm
                0x000000000000e464       0x48 contiki-srf06-cc26xx.a(uip-ds6.o)
                0x000000000000e464                uip_ds6_addr_rm
 .text.uip_ds6_periodic
                0x000000000000e4ac       0x5c contiki-srf06-cc26xx.a(uip-ds6.o)
                0x000000000000e4ac                uip_ds6_periodic
 .text.uip_ds6_select_src
                0x000000000000e508      0x118 contiki-srf06-cc26xx.a(uip-ds6.o)
                0x000000000000e508                uip_ds6_select_src
 .text.uip_ds6_set_addr_iid
                0x000000000000e620       0x14 contiki-srf06-cc26xx.a(uip-ds6.o)
                0x000000000000e620                uip_ds6_set_addr_iid
 .text.uip_ds6_compute_reachable_time
                0x000000000000e634       0x2c contiki-srf06-cc26xx.a(uip-ds6.o)
                0x000000000000e634                uip_ds6_compute_reachable_time
 .text.uip_ds6_init
                0x000000000000e660       0xf8 contiki-srf06-cc26xx.a(uip-ds6.o)
                0x000000000000e660                uip_ds6_init
 .text.call_route_callback
                0x000000000000e758       0x50 contiki-srf06-cc26xx.a(uip-ds6-route.o)
 .text.uip_ds6_route_init
                0x000000000000e7a8       0x4c contiki-srf06-cc26xx.a(uip-ds6-route.o)
                0x000000000000e7a8                uip_ds6_route_init
 .text.uip_ds6_route_nexthop
                0x000000000000e7f4       0x1c contiki-srf06-cc26xx.a(uip-ds6-route.o)
                0x000000000000e7f4                uip_ds6_route_nexthop
 .text.uip_ds6_route_head
                0x000000000000e810        0xc contiki-srf06-cc26xx.a(uip-ds6-route.o)
                0x000000000000e810                uip_ds6_route_head
 .text.uip_ds6_route_next
                0x000000000000e81c        0x8 contiki-srf06-cc26xx.a(uip-ds6-route.o)
                0x000000000000e81c                uip_ds6_route_next
 .text.uip_ds6_route_is_nexthop
                0x000000000000e824       0x20 contiki-srf06-cc26xx.a(uip-ds6-route.o)
                0x000000000000e824                uip_ds6_route_is_nexthop
 .text.uip_ds6_route_lookup
                0x000000000000e844       0x78 contiki-srf06-cc26xx.a(uip-ds6-route.o)
                0x000000000000e844                uip_ds6_route_lookup
 .text.uip_ds6_route_rm
                0x000000000000e8bc       0xac contiki-srf06-cc26xx.a(uip-ds6-route.o)
                0x000000000000e8bc                uip_ds6_route_rm
 .text.rm_routelist
                0x000000000000e968       0x38 contiki-srf06-cc26xx.a(uip-ds6-route.o)
 .text.rm_routelist_callback
                0x000000000000e9a0        0x4 contiki-srf06-cc26xx.a(uip-ds6-route.o)
 .text.uip_ds6_route_add
                0x000000000000e9a4      0x118 contiki-srf06-cc26xx.a(uip-ds6-route.o)
                0x000000000000e9a4                uip_ds6_route_add
 .text.uip_ds6_defrt_rm
                0x000000000000eabc       0x48 contiki-srf06-cc26xx.a(uip-ds6-route.o)
                0x000000000000eabc                uip_ds6_defrt_rm
 .text.uip_ds6_defrt_lookup
                0x000000000000eb04       0x34 contiki-srf06-cc26xx.a(uip-ds6-route.o)
                0x000000000000eb04                uip_ds6_defrt_lookup
 .text.uip_ds6_defrt_add
                0x000000000000eb38       0x5c contiki-srf06-cc26xx.a(uip-ds6-route.o)
                0x000000000000eb38                uip_ds6_defrt_add
 .text.uip_ds6_defrt_choose
                0x000000000000eb94       0x34 contiki-srf06-cc26xx.a(uip-ds6-route.o)
                0x000000000000eb94                uip_ds6_defrt_choose
 .text.uip_ds6_defrt_periodic
                0x000000000000ebc8       0x40 contiki-srf06-cc26xx.a(uip-ds6-route.o)
                0x000000000000ebc8                uip_ds6_defrt_periodic
 .text.chksum   0x000000000000ec08       0x50 contiki-srf06-cc26xx.a(uip6.o)
 .text.upper_layer_chksum
                0x000000000000ec58       0x58 contiki-srf06-cc26xx.a(uip6.o)
 .text.ext_hdr_options_process
                0x000000000000ecb0       0xd4 contiki-srf06-cc26xx.a(uip6.o)
 .text.uip_add32
                0x000000000000ed84       0x58 contiki-srf06-cc26xx.a(uip6.o)
                0x000000000000ed84                uip_add32
 .text.unlikely.uip_add_rcv_nxt
                0x000000000000eddc       0x2c contiki-srf06-cc26xx.a(uip6.o)
 .text.uip_icmp6chksum
                0x000000000000ee08        0x8 contiki-srf06-cc26xx.a(uip6.o)
                0x000000000000ee08                uip_icmp6chksum
 .text.uip_init
                0x000000000000ee10       0x5c contiki-srf06-cc26xx.a(uip6.o)
                0x000000000000ee10                uip_init
 .text.uip_connect
                0x000000000000ee6c       0xe4 contiki-srf06-cc26xx.a(uip6.o)
                0x000000000000ee6c                uip_connect
 .text.remove_ext_hdr
                0x000000000000ef50       0x54 contiki-srf06-cc26xx.a(uip6.o)
                0x000000000000ef50                remove_ext_hdr
 .text.uip_udp_new
                0x000000000000efa4       0x90 contiki-srf06-cc26xx.a(uip6.o)
                0x000000000000efa4                uip_udp_new
 .text.uip_unlisten
                0x000000000000f034       0x28 contiki-srf06-cc26xx.a(uip6.o)
                0x000000000000f034                uip_unlisten
 .text.uip_listen
                0x000000000000f05c       0x24 contiki-srf06-cc26xx.a(uip6.o)
                0x000000000000f05c                uip_listen
 .text.uip_process
                0x000000000000f080     0x1088 contiki-srf06-cc26xx.a(uip6.o)
                0x000000000000f080                uip_process
 .text.uip_htons
                0x0000000000010108        0x8 contiki-srf06-cc26xx.a(uip6.o)
                0x0000000000010108                uip_htons
 .text.uip_htonl
                0x0000000000010110       0x18 contiki-srf06-cc26xx.a(uip6.o)
                0x0000000000010110                uip_htonl
 .text.uip_send
                0x0000000000010128       0x4c contiki-srf06-cc26xx.a(uip6.o)
                0x0000000000010128                uip_send
 .text.uip_ds6_nbr_rm
                0x0000000000010174       0x20 contiki-srf06-cc26xx.a(uip-ds6-nbr.o)
                0x0000000000010174                uip_ds6_nbr_rm
 .text.uip_ds6_neighbors_init
                0x0000000000010194       0x1c contiki-srf06-cc26xx.a(uip-ds6-nbr.o)
                0x0000000000010194                uip_ds6_neighbors_init
 .text.uip_ds6_nbr_add
                0x00000000000101b0       0x38 contiki-srf06-cc26xx.a(uip-ds6-nbr.o)
                0x00000000000101b0                uip_ds6_nbr_add
 .text.uip_ds6_nbr_get_ll
                0x00000000000101e8       0x10 contiki-srf06-cc26xx.a(uip-ds6-nbr.o)
                0x00000000000101e8                uip_ds6_nbr_get_ll
 .text.uip_ds6_nbr_lookup
                0x00000000000101f8       0x3c contiki-srf06-cc26xx.a(uip-ds6-nbr.o)
                0x00000000000101f8                uip_ds6_nbr_lookup
 .text.uip_ds6_nbr_ipaddr_from_lladdr
                0x0000000000010234       0x10 contiki-srf06-cc26xx.a(uip-ds6-nbr.o)
                0x0000000000010234                uip_ds6_nbr_ipaddr_from_lladdr
 .text.uip_ds6_nbr_lladdr_from_ipaddr
                0x0000000000010244       0x1c contiki-srf06-cc26xx.a(uip-ds6-nbr.o)
                0x0000000000010244                uip_ds6_nbr_lladdr_from_ipaddr
 .text.uip_ds6_link_neighbor_callback
                0x0000000000010260       0x34 contiki-srf06-cc26xx.a(uip-ds6-nbr.o)
                0x0000000000010260                uip_ds6_link_neighbor_callback
 .text.ns_input
                0x0000000000010294      0x294 contiki-srf06-cc26xx.a(uip-nd6.o)
 .text.uip_nd6_init
                0x0000000000010528        0xc contiki-srf06-cc26xx.a(uip-nd6.o)
                0x0000000000010528                uip_nd6_init
 .text.sicslowpan_init
                0x0000000000010534       0x24 contiki-srf06-cc26xx.a(sicslowpan.o)
                0x0000000000010534                sicslowpan_init
 .text.compress_addr_64
                0x0000000000010558       0x9c contiki-srf06-cc26xx.a(sicslowpan.o)
 .text.set_packet_attrs
                0x00000000000105f4       0x50 contiki-srf06-cc26xx.a(sicslowpan.o)
 .text.addr_context_lookup_by_prefix
                0x0000000000010644       0x28 contiki-srf06-cc26xx.a(sicslowpan.o)
 .text.send_packet
                0x000000000001066c       0x24 contiki-srf06-cc26xx.a(sicslowpan.o)
 .text.packet_sent
                0x0000000000010690       0x28 contiki-srf06-cc26xx.a(sicslowpan.o)
 .text.store_fragment
                0x00000000000106b8       0x68 contiki-srf06-cc26xx.a(sicslowpan.o)
 .text.add_fragment
                0x0000000000010720      0x17c contiki-srf06-cc26xx.a(sicslowpan.o)
 .text.uncompress_addr
                0x000000000001089c       0xb8 contiki-srf06-cc26xx.a(sicslowpan.o)
 .text.input    0x0000000000010954      0x68c contiki-srf06-cc26xx.a(sicslowpan.o)
 .text.output   0x0000000000010fe0      0x6fc contiki-srf06-cc26xx.a(sicslowpan.o)
 .text.sicslowpan_get_last_rssi
                0x00000000000116dc        0xc contiki-srf06-cc26xx.a(sicslowpan.o)
                0x00000000000116dc                sicslowpan_get_last_rssi
 .text.uip_debug_ipaddr_print
                0x00000000000116e8       0xb0 contiki-srf06-cc26xx.a(uip-debug.o)
                0x00000000000116e8                uip_debug_ipaddr_print
 .text.newdata  0x0000000000011798       0x4c contiki-srf06-cc26xx.a(tcp-socket.o)
 .text.senddata
                0x00000000000117e4       0x30 contiki-srf06-cc26xx.a(tcp-socket.o)
 .text.process_thread_tcp_socket_process
                0x0000000000011814      0x288 contiki-srf06-cc26xx.a(tcp-socket.o)
 .text.tcp_socket_register
                0x0000000000011a9c       0x70 contiki-srf06-cc26xx.a(tcp-socket.o)
                0x0000000000011a9c                tcp_socket_register
 .text.tcp_socket_connect
                0x0000000000011b0c       0x4c contiki-srf06-cc26xx.a(tcp-socket.o)
                0x0000000000011b0c                tcp_socket_connect
 .text.tcp_socket_unlisten
                0x0000000000011b58       0x3c contiki-srf06-cc26xx.a(tcp-socket.o)
                0x0000000000011b58                tcp_socket_unlisten
 .text.tcp_socket_send
                0x0000000000011b94       0x3c contiki-srf06-cc26xx.a(tcp-socket.o)
                0x0000000000011b94                tcp_socket_send
 .text.tcp_socket_close
                0x0000000000011bd0       0x1c contiki-srf06-cc26xx.a(tcp-socket.o)
                0x0000000000011bd0                tcp_socket_close
 .text.tcp_socket_unregister
                0x0000000000011bec       0x2c contiki-srf06-cc26xx.a(tcp-socket.o)
                0x0000000000011bec                tcp_socket_unregister
 .text.uiplib_ip6addrconv
                0x0000000000011c18       0xd0 contiki-srf06-cc26xx.a(uiplib.o)
                0x0000000000011c18                uiplib_ip6addrconv
 .text.uip_udp_packet_send
                0x0000000000011ce8       0x40 contiki-srf06-cc26xx.a(uip-udp-packet.)
                0x0000000000011ce8                uip_udp_packet_send
 .text.uip_udp_packet_sendto
                0x0000000000011d28       0x48 contiki-srf06-cc26xx.a(uip-udp-packet.)
                0x0000000000011d28                uip_udp_packet_sendto
 .text.psock_send
                0x0000000000011d70       0xa4 contiki-srf06-cc26xx.a(psock.o)
                0x0000000000011d70                psock_send
 .text.psock_datalen
                0x0000000000011e14        0xc contiki-srf06-cc26xx.a(psock.o)
                0x0000000000011e14                psock_datalen
 .text.psock_readto
                0x0000000000011e20       0xbc contiki-srf06-cc26xx.a(psock.o)
                0x0000000000011e20                psock_readto
 .text.psock_readbuf_len
                0x0000000000011edc       0xf4 contiki-srf06-cc26xx.a(psock.o)
                0x0000000000011edc                psock_readbuf_len
 .text.psock_init
                0x0000000000011fd0       0x18 contiki-srf06-cc26xx.a(psock.o)
                0x0000000000011fd0                psock_init
 .text.start_periodic_tcp_timer
                0x0000000000011fe8       0x1c contiki-srf06-cc26xx.a(tcpip.o)
 .text.tcpip_set_outputfunc
                0x0000000000012004        0xc contiki-srf06-cc26xx.a(tcpip.o)
                0x0000000000012004                tcpip_set_outputfunc
 .text.tcp_connect
                0x0000000000012010       0x2c contiki-srf06-cc26xx.a(tcpip.o)
                0x0000000000012010                tcp_connect
 .text.tcp_unlisten
                0x000000000001203c       0x38 contiki-srf06-cc26xx.a(tcpip.o)
                0x000000000001203c                tcp_unlisten
 .text.tcp_listen
                0x0000000000012074       0x30 contiki-srf06-cc26xx.a(tcpip.o)
                0x0000000000012074                tcp_listen
 .text.tcp_attach
                0x00000000000120a4       0x10 contiki-srf06-cc26xx.a(tcpip.o)
                0x00000000000120a4                tcp_attach
 .text.udp_new  0x00000000000120b4       0x18 contiki-srf06-cc26xx.a(tcpip.o)
                0x00000000000120b4                udp_new
 .text.tcpip_icmp6_call
                0x00000000000120cc       0x28 contiki-srf06-cc26xx.a(tcpip.o)
                0x00000000000120cc                tcpip_icmp6_call
 .text.tcpip_input
                0x00000000000120f4       0x24 contiki-srf06-cc26xx.a(tcpip.o)
                0x00000000000120f4                tcpip_input
 .text.tcpip_ipv6_output
                0x0000000000012118       0xbc contiki-srf06-cc26xx.a(tcpip.o)
                0x0000000000012118                tcpip_ipv6_output
 .text.process_thread_tcpip_process
                0x00000000000121d4      0x1c0 contiki-srf06-cc26xx.a(tcpip.o)
 .text.tcpip_poll_tcp
                0x0000000000012394       0x10 contiki-srf06-cc26xx.a(tcpip.o)
                0x0000000000012394                tcpip_poll_tcp
 .text.tcpip_uipcall
                0x00000000000123a4       0x70 contiki-srf06-cc26xx.a(tcpip.o)
                0x00000000000123a4                tcpip_uipcall
 .text.rpl_set_preferred_parent
                0x0000000000012414       0x2c contiki-srf06-cc26xx.a(rpl-dag.o)
 .text.set_ip_from_prefix
                0x0000000000012440       0x24 contiki-srf06-cc26xx.a(rpl-dag.o)
 .text.check_prefix
                0x0000000000012464       0x78 contiki-srf06-cc26xx.a(rpl-dag.o)
 .text.find_parent_any_dag_any_instance
                0x00000000000124dc       0x1c contiki-srf06-cc26xx.a(rpl-dag.o)
 .text.lollipop_greater_than
                0x00000000000124f8       0x3c contiki-srf06-cc26xx.a(rpl-dag.o)
 .text.rpl_dag_init
                0x0000000000012534       0x14 contiki-srf06-cc26xx.a(rpl-dag.o)
                0x0000000000012534                rpl_dag_init
 .text.rpl_get_parent
                0x0000000000012548       0x10 contiki-srf06-cc26xx.a(rpl-dag.o)
                0x0000000000012548                rpl_get_parent
 .text.rpl_rank_via_parent
                0x0000000000012558       0x1c contiki-srf06-cc26xx.a(rpl-dag.o)
                0x0000000000012558                rpl_rank_via_parent
 .text.rpl_get_parent_ipaddr
                0x0000000000012574       0x18 contiki-srf06-cc26xx.a(rpl-dag.o)
                0x0000000000012574                rpl_get_parent_ipaddr
 .text.rpl_get_parent_link_stats
                0x000000000001258c       0x18 contiki-srf06-cc26xx.a(rpl-dag.o)
                0x000000000001258c                rpl_get_parent_link_stats
 .text.best_parent
                0x00000000000125a4       0x94 contiki-srf06-cc26xx.a(rpl-dag.o)
 .text.rpl_parent_is_fresh
                0x0000000000012638       0x10 contiki-srf06-cc26xx.a(rpl-dag.o)
                0x0000000000012638                rpl_parent_is_fresh
 .text.rpl_parent_is_reachable
                0x0000000000012648       0x40 contiki-srf06-cc26xx.a(rpl-dag.o)
                0x0000000000012648                rpl_parent_is_reachable
 .text.rpl_repair_root
                0x0000000000012688       0x60 contiki-srf06-cc26xx.a(rpl-dag.o)
                0x0000000000012688                rpl_repair_root
 .text.rpl_set_prefix
                0x00000000000126e8       0x94 contiki-srf06-cc26xx.a(rpl-dag.o)
                0x00000000000126e8                rpl_set_prefix
 .text.rpl_set_default_route
                0x000000000001277c       0x30 contiki-srf06-cc26xx.a(rpl-dag.o)
                0x000000000001277c                rpl_set_default_route
 .text.rpl_alloc_instance
                0x00000000000127ac       0x34 contiki-srf06-cc26xx.a(rpl-dag.o)
                0x00000000000127ac                rpl_alloc_instance
 .text.rpl_alloc_dag
                0x00000000000127e0       0x5c contiki-srf06-cc26xx.a(rpl-dag.o)
                0x00000000000127e0                rpl_alloc_dag
 .text.rpl_add_parent
                0x000000000001283c       0x30 contiki-srf06-cc26xx.a(rpl-dag.o)
                0x000000000001283c                rpl_add_parent
 .text.rpl_find_parent
                0x000000000001286c       0x18 contiki-srf06-cc26xx.a(rpl-dag.o)
                0x000000000001286c                rpl_find_parent
 .text.rpl_find_parent_any_dag
                0x0000000000012884       0x20 contiki-srf06-cc26xx.a(rpl-dag.o)
                0x0000000000012884                rpl_find_parent_any_dag
 .text.rpl_select_parent
                0x00000000000128a4       0x58 contiki-srf06-cc26xx.a(rpl-dag.o)
                0x00000000000128a4                rpl_select_parent
 .text.rpl_select_dag
                0x00000000000128fc      0x18c contiki-srf06-cc26xx.a(rpl-dag.o)
                0x00000000000128fc                rpl_select_dag
 .text.rpl_nullify_parent
                0x0000000000012a88       0x58 contiki-srf06-cc26xx.a(rpl-dag.o)
                0x0000000000012a88                rpl_nullify_parent
 .text.rpl_remove_parent
                0x0000000000012ae0       0x1c contiki-srf06-cc26xx.a(rpl-dag.o)
                0x0000000000012ae0                rpl_remove_parent
 .text.nbr_callback
                0x0000000000012afc        0x4 contiki-srf06-cc26xx.a(rpl-dag.o)
 .text.remove_parents.constprop.7
                0x0000000000012b00       0x48 contiki-srf06-cc26xx.a(rpl-dag.o)
 .text.rpl_free_dag
                0x0000000000012b48       0x3c contiki-srf06-cc26xx.a(rpl-dag.o)
                0x0000000000012b48                rpl_free_dag
 .text.rpl_move_parent
                0x0000000000012b84       0x58 contiki-srf06-cc26xx.a(rpl-dag.o)
                0x0000000000012b84                rpl_move_parent
 .text.rpl_get_dag
                0x0000000000012bdc       0x3c contiki-srf06-cc26xx.a(rpl-dag.o)
                0x0000000000012bdc                rpl_get_dag
 .text.rpl_get_any_dag
                0x0000000000012c18       0x18 contiki-srf06-cc26xx.a(rpl-dag.o)
                0x0000000000012c18                rpl_get_any_dag
 .text.rpl_get_instance
                0x0000000000012c30       0x20 contiki-srf06-cc26xx.a(rpl-dag.o)
                0x0000000000012c30                rpl_get_instance
 .text.rpl_join_instance
                0x0000000000012c50      0x14c contiki-srf06-cc26xx.a(rpl-dag.o)
                0x0000000000012c50                rpl_join_instance
 .text.rpl_local_repair
                0x0000000000012d9c       0x90 contiki-srf06-cc26xx.a(rpl-dag.o)
                0x0000000000012d9c                rpl_local_repair
 .text.rpl_process_parent_event
                0x0000000000012e2c       0x9c contiki-srf06-cc26xx.a(rpl-dag.o)
                0x0000000000012e2c                rpl_process_parent_event
 .text.rpl_add_dag
                0x0000000000012ec8      0x14c contiki-srf06-cc26xx.a(rpl-dag.o)
                0x0000000000012ec8                rpl_add_dag
 .text.rpl_recalculate_ranks
                0x0000000000013014       0x50 contiki-srf06-cc26xx.a(rpl-dag.o)
                0x0000000000013014                rpl_recalculate_ranks
 .text.rpl_process_dio
                0x0000000000013064      0x330 contiki-srf06-cc26xx.a(rpl-dag.o)
                0x0000000000013064                rpl_process_dio
 .text.new_dio_interval
                0x0000000000013394       0x60 contiki-srf06-cc26xx.a(rpl-timers.o)
 .text.handle_periodic_timer
                0x00000000000133f4       0x58 contiki-srf06-cc26xx.a(rpl-timers.o)
 .text.set_dao_lifetime_timer
                0x000000000001344c       0x48 contiki-srf06-cc26xx.a(rpl-timers.o)
 .text.handle_unicast_dio_timer
                0x0000000000013494       0x1c contiki-srf06-cc26xx.a(rpl-timers.o)
 .text.handle_dio_timer
                0x00000000000134b0       0x8c contiki-srf06-cc26xx.a(rpl-timers.o)
 .text.schedule_dao
                0x000000000001353c       0x54 contiki-srf06-cc26xx.a(rpl-timers.o)
 .text.handle_dao_timer
                0x0000000000013590       0x5c contiki-srf06-cc26xx.a(rpl-timers.o)
 .text.rpl_reset_periodic_timer
                0x00000000000135ec       0x3c contiki-srf06-cc26xx.a(rpl-timers.o)
                0x00000000000135ec                rpl_reset_periodic_timer
 .text.rpl_reset_dio_timer
                0x0000000000013628       0x1c contiki-srf06-cc26xx.a(rpl-timers.o)
                0x0000000000013628                rpl_reset_dio_timer
 .text.rpl_schedule_dao
                0x0000000000013644        0x8 contiki-srf06-cc26xx.a(rpl-timers.o)
                0x0000000000013644                rpl_schedule_dao
 .text.rpl_schedule_unicast_dio_immediately
                0x000000000001364c       0x14 contiki-srf06-cc26xx.a(rpl-timers.o)
                0x000000000001364c                rpl_schedule_unicast_dio_immediately
 .text.get_probing_delay
                0x0000000000013660       0x4c contiki-srf06-cc26xx.a(rpl-timers.o)
                0x0000000000013660                get_probing_delay
 .text.get_probing_target
                0x00000000000136ac       0xe4 contiki-srf06-cc26xx.a(rpl-timers.o)
                0x00000000000136ac                get_probing_target
 .text.rpl_schedule_probing
                0x0000000000013790       0x20 contiki-srf06-cc26xx.a(rpl-timers.o)
                0x0000000000013790                rpl_schedule_probing
 .text.handle_probing_timer
                0x00000000000137b0       0x34 contiki-srf06-cc26xx.a(rpl-timers.o)
 .text.update_hbh_header
                0x00000000000137e4       0xd0 contiki-srf06-cc26xx.a(rpl-ext-header.)
 .text.insert_hbh_header.isra.0
                0x00000000000138b4       0xb0 contiki-srf06-cc26xx.a(rpl-ext-header.)
 .text.rpl_verify_hbh_header
                0x0000000000013964       0xf0 contiki-srf06-cc26xx.a(rpl-ext-header.)
                0x0000000000013964                rpl_verify_hbh_header
 .text.rpl_remove_header
                0x0000000000013a54       0x80 contiki-srf06-cc26xx.a(rpl-ext-header.)
                0x0000000000013a54                rpl_remove_header
 .text.rpl_update_header
                0x0000000000013ad4       0x74 contiki-srf06-cc26xx.a(rpl-ext-header.)
                0x0000000000013ad4                rpl_update_header
 .text.rpl_get_mode
                0x0000000000013b48        0xc contiki-srf06-cc26xx.a(rpl.o)
                0x0000000000013b48                rpl_get_mode
 .text.rpl_purge_routes
                0x0000000000013b54       0x7c contiki-srf06-cc26xx.a(rpl.o)
                0x0000000000013b54                rpl_purge_routes
 .text.rpl_remove_routes
                0x0000000000013bd0       0x24 contiki-srf06-cc26xx.a(rpl.o)
                0x0000000000013bd0                rpl_remove_routes
 .text.rpl_remove_routes_by_nexthop
                0x0000000000013bf4       0x34 contiki-srf06-cc26xx.a(rpl.o)
                0x0000000000013bf4                rpl_remove_routes_by_nexthop
 .text.rpl_add_route
                0x0000000000013c28       0x38 contiki-srf06-cc26xx.a(rpl.o)
                0x0000000000013c28                rpl_add_route
 .text.rpl_link_neighbor_callback
                0x0000000000013c60       0x60 contiki-srf06-cc26xx.a(rpl.o)
                0x0000000000013c60                rpl_link_neighbor_callback
 .text.rpl_ipv6_neighbor_callback
                0x0000000000013cc0       0x30 contiki-srf06-cc26xx.a(rpl.o)
                0x0000000000013cc0                rpl_ipv6_neighbor_callback
 .text.rpl_purge_dags
                0x0000000000013cf0       0x40 contiki-srf06-cc26xx.a(rpl.o)
                0x0000000000013cf0                rpl_purge_dags
 .text.rpl_init
                0x0000000000013d30       0x4c contiki-srf06-cc26xx.a(rpl.o)
                0x0000000000013d30                rpl_init
 .text.reset    0x0000000000013d7c        0x4 contiki-srf06-cc26xx.a(rpl-mrhof.o)
 .text.update_metric_container
                0x0000000000013d80        0x8 contiki-srf06-cc26xx.a(rpl-mrhof.o)
 .text.parent_link_metric
                0x0000000000013d88       0x14 contiki-srf06-cc26xx.a(rpl-mrhof.o)
 .text.parent_has_usable_link
                0x0000000000013d9c       0x18 contiki-srf06-cc26xx.a(rpl-mrhof.o)
 .text.best_dag
                0x0000000000013db4       0x2c contiki-srf06-cc26xx.a(rpl-mrhof.o)
 .text.parent_path_cost
                0x0000000000013de0       0x4c contiki-srf06-cc26xx.a(rpl-mrhof.o)
 .text.parent_is_acceptable
                0x0000000000013e2c       0x34 contiki-srf06-cc26xx.a(rpl-mrhof.o)
 .text.rank_via_parent
                0x0000000000013e60       0x3c contiki-srf06-cc26xx.a(rpl-mrhof.o)
 .text.best_parent
                0x0000000000013e9c       0x68 contiki-srf06-cc26xx.a(rpl-mrhof.o)
 .text.dao_ack_input
                0x0000000000013f04       0x14 contiki-srf06-cc26xx.a(rpl-icmp6.o)
 .text.dao_output_target_seq
                0x0000000000013f18      0x120 contiki-srf06-cc26xx.a(rpl-icmp6.o)
 .text.dio_input
                0x0000000000014038      0x2a8 contiki-srf06-cc26xx.a(rpl-icmp6.o)
 .text.rpl_icmp6_update_nbr_table
                0x00000000000142e0       0x38 contiki-srf06-cc26xx.a(rpl-icmp6.o)
                0x00000000000142e0                rpl_icmp6_update_nbr_table
 .text.dao_input
                0x0000000000014318      0x2c8 contiki-srf06-cc26xx.a(rpl-icmp6.o)
 .text.dis_output
                0x00000000000145e0       0x58 contiki-srf06-cc26xx.a(rpl-icmp6.o)
                0x00000000000145e0                dis_output
 .text.dio_output
                0x0000000000014638      0x2b0 contiki-srf06-cc26xx.a(rpl-icmp6.o)
                0x0000000000014638                dio_output
 .text.dis_input
                0x00000000000148e8       0x54 contiki-srf06-cc26xx.a(rpl-icmp6.o)
 .text.dao_output
                0x000000000001493c       0x90 contiki-srf06-cc26xx.a(rpl-icmp6.o)
                0x000000000001493c                dao_output
 .text.dao_output_target
                0x00000000000149cc        0xc contiki-srf06-cc26xx.a(rpl-icmp6.o)
                0x00000000000149cc                dao_output_target
 .text.rpl_icmp6_register_handlers
                0x00000000000149d8       0x30 contiki-srf06-cc26xx.a(rpl-icmp6.o)
                0x00000000000149d8                rpl_icmp6_register_handlers
 .text.TrimAfterColdResetWakeupFromShutDown
                0x0000000000014a08       0xe4 contiki-srf06-cc26xx.a(setup.o)
 .text.NOROM_SetupTrimDevice
                0x0000000000014aec       0xa4 contiki-srf06-cc26xx.a(setup.o)
                0x0000000000014aec                NOROM_SetupTrimDevice
 .text.NOROM_AONBatMonTemperatureGetDegC
                0x0000000000014b90       0x30 contiki-srf06-cc26xx.a(aon_batmon.o)
                0x0000000000014b90                NOROM_AONBatMonTemperatureGetDegC
 .text.NOROM_OSCClockSourceSet
                0x0000000000014bc0       0x50 contiki-srf06-cc26xx.a(osc.o)
                0x0000000000014bc0                NOROM_OSCClockSourceSet
 .text.NOROM_OSCClockSourceGet
                0x0000000000014c10       0x20 contiki-srf06-cc26xx.a(osc.o)
                0x0000000000014c10                NOROM_OSCClockSourceGet
 .text.NOROM_DDI32RegWrite
                0x0000000000014c30       0x34 contiki-srf06-cc26xx.a(ddi.o)
                0x0000000000014c30                NOROM_DDI32RegWrite
 .text.NOROM_DDI16BitfieldWrite
                0x0000000000014c64       0x4c contiki-srf06-cc26xx.a(ddi.o)
                0x0000000000014c64                NOROM_DDI16BitfieldWrite
 .text.NOROM_DDI16BitfieldRead
                0x0000000000014cb0       0x4c contiki-srf06-cc26xx.a(ddi.o)
                0x0000000000014cb0                NOROM_DDI16BitfieldRead
 .text.NOROM_SysCtrlSetRechargeBeforePowerDown
                0x0000000000014cfc      0x264 contiki-srf06-cc26xx.a(sys_ctrl.o)
                0x0000000000014cfc                NOROM_SysCtrlSetRechargeBeforePowerDown
 .text.NOROM_SysCtrlAdjustRechargeAfterPowerDown
                0x0000000000014f60       0x70 contiki-srf06-cc26xx.a(sys_ctrl.o)
                0x0000000000014f60                NOROM_SysCtrlAdjustRechargeAfterPowerDown
 .text.NOROM_SysCtrl_DCDC_VoltageConditionalControl
                0x0000000000014fd0       0x7c contiki-srf06-cc26xx.a(sys_ctrl.o)
                0x0000000000014fd0                NOROM_SysCtrl_DCDC_VoltageConditionalControl
 .text.SafeHapiVoid
                0x000000000001504c       0x2c contiki-srf06-cc26xx.a(adi.o)
                0x000000000001504c                SafeHapiVoid
 .text.NOROM_PowerCtrlSourceSet
                0x0000000000015078       0x30 contiki-srf06-cc26xx.a(pwr_ctrl.o)
                0x0000000000015078                NOROM_PowerCtrlSourceSet
 .text.NOROM_TRNGConfigure
                0x00000000000150a8       0x38 contiki-srf06-cc26xx.a(trng.o)
                0x00000000000150a8                NOROM_TRNGConfigure
 .text.NOROM_CPUcpsid
                0x00000000000150e0        0x8 contiki-srf06-cc26xx.a(cpu.o)
                0x00000000000150e0                NOROM_CPUcpsid
 .text.NOROM_CPUcpsie
                0x00000000000150e8        0x8 contiki-srf06-cc26xx.a(cpu.o)
                0x00000000000150e8                NOROM_CPUcpsie
 .text.NOROM_CPUdelay
                0x00000000000150f0        0x8 contiki-srf06-cc26xx.a(cpu.o)
                0x00000000000150f0                NOROM_CPUdelay
 .text.NOROM_AONRTCCurrentCompareValueGet
                0x00000000000150f8       0x24 contiki-srf06-cc26xx.a(aon_rtc.o)
                0x00000000000150f8                NOROM_AONRTCCurrentCompareValueGet
 .text.NOROM_ChipInfo_GetSupportedProtocol_BV
                0x000000000001511c       0x10 contiki-srf06-cc26xx.a(chipinfo.o)
                0x000000000001511c                NOROM_ChipInfo_GetSupportedProtocol_BV
 .text.NOROM_ChipInfo_GetChipFamily
                0x000000000001512c       0x4c contiki-srf06-cc26xx.a(chipinfo.o)
                0x000000000001512c                NOROM_ChipInfo_GetChipFamily
 .text.NOROM_ChipInfo_GetChipType
                0x0000000000015178       0x50 contiki-srf06-cc26xx.a(chipinfo.o)
                0x0000000000015178                NOROM_ChipInfo_GetChipType
 .text.NOROM_ChipInfo_GetHwRevision
                0x00000000000151c8       0x6c contiki-srf06-cc26xx.a(chipinfo.o)
                0x00000000000151c8                NOROM_ChipInfo_GetHwRevision
 .text.NOROM_ThisCodeIsBuiltForCC26xxHwRev22AndLater_HaltIfViolated
                0x0000000000015234       0x14 contiki-srf06-cc26xx.a(chipinfo.o)
                0x0000000000015234                NOROM_ThisCodeIsBuiltForCC26xxHwRev22AndLater_HaltIfViolated
 .text.queuebuf_init
                0x0000000000015248       0x1c contiki-srf06-cc26xx.a(queuebuf.o)
                0x0000000000015248                queuebuf_init
 .text.queuebuf_numfree
                0x0000000000015264        0xc contiki-srf06-cc26xx.a(queuebuf.o)
                0x0000000000015264                queuebuf_numfree
 .text.queuebuf_new_from_packetbuf
                0x0000000000015270       0x48 contiki-srf06-cc26xx.a(queuebuf.o)
                0x0000000000015270                queuebuf_new_from_packetbuf
 .text.queuebuf_update_attr_from_packetbuf
                0x00000000000152b8        0xc contiki-srf06-cc26xx.a(queuebuf.o)
                0x00000000000152b8                queuebuf_update_attr_from_packetbuf
 .text.queuebuf_update_from_packetbuf
                0x00000000000152c4       0x1c contiki-srf06-cc26xx.a(queuebuf.o)
                0x00000000000152c4                queuebuf_update_from_packetbuf
 .text.queuebuf_free
                0x00000000000152e0       0x2c contiki-srf06-cc26xx.a(queuebuf.o)
                0x00000000000152e0                queuebuf_free
 .text.queuebuf_to_packetbuf
                0x000000000001530c       0x30 contiki-srf06-cc26xx.a(queuebuf.o)
                0x000000000001530c                queuebuf_to_packetbuf
 .text.queuebuf_attr
                0x000000000001533c        0xc contiki-srf06-cc26xx.a(queuebuf.o)
                0x000000000001533c                queuebuf_attr
 .text.index_from_lladdr
                0x0000000000015348       0x50 contiki-srf06-cc26xx.a(nbr-table.o)
 .text.remove_key
                0x0000000000015398       0x9c contiki-srf06-cc26xx.a(nbr-table.o)
 .text.nbr_table_register
                0x0000000000015434       0x2c contiki-srf06-cc26xx.a(nbr-table.o)
                0x0000000000015434                nbr_table_register
 .text.nbr_table_next
                0x0000000000015460       0x7c contiki-srf06-cc26xx.a(nbr-table.o)
                0x0000000000015460                nbr_table_next
 .text.nbr_table_head
                0x00000000000154dc       0x70 contiki-srf06-cc26xx.a(nbr-table.o)
                0x00000000000154dc                nbr_table_head
 .text.nbr_table_add_lladdr
                0x000000000001554c      0x15c contiki-srf06-cc26xx.a(nbr-table.o)
                0x000000000001554c                nbr_table_add_lladdr
 .text.nbr_table_get_from_lladdr
                0x00000000000156a8       0x44 contiki-srf06-cc26xx.a(nbr-table.o)
                0x00000000000156a8                nbr_table_get_from_lladdr
 .text.nbr_table_remove
                0x00000000000156ec       0x5c contiki-srf06-cc26xx.a(nbr-table.o)
                0x00000000000156ec                nbr_table_remove
 .text.nbr_table_lock
                0x0000000000015748       0x34 contiki-srf06-cc26xx.a(nbr-table.o)
                0x0000000000015748                nbr_table_lock
 .text.nbr_table_unlock
                0x000000000001577c       0x38 contiki-srf06-cc26xx.a(nbr-table.o)
                0x000000000001577c                nbr_table_unlock
 .text.nbr_table_get_lladdr
                0x00000000000157b4       0x30 contiki-srf06-cc26xx.a(nbr-table.o)
                0x00000000000157b4                nbr_table_get_lladdr
 .text.nbr_table_update_lladdr
                0x00000000000157e4       0x54 contiki-srf06-cc26xx.a(nbr-table.o)
                0x00000000000157e4                nbr_table_update_lladdr
 .text.packetbuf_copyto
                0x0000000000015838       0x50 contiki-srf06-cc26xx.a(packetbuf.o)
                0x0000000000015838                packetbuf_copyto
 .text.packetbuf_hdralloc
                0x0000000000015888       0x54 contiki-srf06-cc26xx.a(packetbuf.o)
                0x0000000000015888                packetbuf_hdralloc
 .text.packetbuf_hdrreduce
                0x00000000000158dc       0x2c contiki-srf06-cc26xx.a(packetbuf.o)
                0x00000000000158dc                packetbuf_hdrreduce
 .text.packetbuf_set_datalen
                0x0000000000015908        0xc contiki-srf06-cc26xx.a(packetbuf.o)
                0x0000000000015908                packetbuf_set_datalen
 .text.packetbuf_dataptr
                0x0000000000015914       0x20 contiki-srf06-cc26xx.a(packetbuf.o)
                0x0000000000015914                packetbuf_dataptr
 .text.packetbuf_hdrptr
                0x0000000000015934        0x8 contiki-srf06-cc26xx.a(packetbuf.o)
                0x0000000000015934                packetbuf_hdrptr
 .text.packetbuf_datalen
                0x000000000001593c        0xc contiki-srf06-cc26xx.a(packetbuf.o)
                0x000000000001593c                packetbuf_datalen
 .text.packetbuf_totlen
                0x0000000000015948       0x24 contiki-srf06-cc26xx.a(packetbuf.o)
                0x0000000000015948                packetbuf_totlen
 .text.packetbuf_attr_clear
                0x000000000001596c       0x34 contiki-srf06-cc26xx.a(packetbuf.o)
                0x000000000001596c                packetbuf_attr_clear
 .text.packetbuf_clear
                0x00000000000159a0       0x20 contiki-srf06-cc26xx.a(packetbuf.o)
                0x00000000000159a0                packetbuf_clear
 .text.packetbuf_copyfrom
                0x00000000000159c0       0x40 contiki-srf06-cc26xx.a(packetbuf.o)
                0x00000000000159c0                packetbuf_copyfrom
 .text.packetbuf_attr_copyto
                0x0000000000015a00       0x44 contiki-srf06-cc26xx.a(packetbuf.o)
                0x0000000000015a00                packetbuf_attr_copyto
 .text.packetbuf_attr_copyfrom
                0x0000000000015a44       0x44 contiki-srf06-cc26xx.a(packetbuf.o)
                0x0000000000015a44                packetbuf_attr_copyfrom
 .text.packetbuf_set_attr
                0x0000000000015a88       0x10 contiki-srf06-cc26xx.a(packetbuf.o)
                0x0000000000015a88                packetbuf_set_attr
 .text.packetbuf_attr
                0x0000000000015a98        0xc contiki-srf06-cc26xx.a(packetbuf.o)
                0x0000000000015a98                packetbuf_attr
 .text.packetbuf_set_addr
                0x0000000000015aa4       0x18 contiki-srf06-cc26xx.a(packetbuf.o)
                0x0000000000015aa4                packetbuf_set_addr
 .text.packetbuf_addr
                0x0000000000015abc       0x10 contiki-srf06-cc26xx.a(packetbuf.o)
                0x0000000000015abc                packetbuf_addr
 .text.packetbuf_holds_broadcast
                0x0000000000015acc       0x10 contiki-srf06-cc26xx.a(packetbuf.o)
                0x0000000000015acc                packetbuf_holds_broadcast
 .text.netstack_init
                0x0000000000015adc       0x38 contiki-srf06-cc26xx.a(netstack.o)
                0x0000000000015adc                netstack_init
 .text.linkaddr_copy
                0x0000000000015b14        0xc contiki-srf06-cc26xx.a(linkaddr.o)
                0x0000000000015b14                linkaddr_copy
 .text.linkaddr_cmp
                0x0000000000015b20       0x10 contiki-srf06-cc26xx.a(linkaddr.o)
                0x0000000000015b20                linkaddr_cmp
 .text.periodic
                0x0000000000015b30       0x2c contiki-srf06-cc26xx.a(link-stats.o)
 .text.link_stats_from_lladdr
                0x0000000000015b5c        0xc contiki-srf06-cc26xx.a(link-stats.o)
                0x0000000000015b5c                link_stats_from_lladdr
 .text.link_stats_is_fresh
                0x0000000000015b68       0x28 contiki-srf06-cc26xx.a(link-stats.o)
                0x0000000000015b68                link_stats_is_fresh
 .text.link_stats_packet_sent
                0x0000000000015b90       0xcc contiki-srf06-cc26xx.a(link-stats.o)
                0x0000000000015b90                link_stats_packet_sent
 .text.link_stats_input_callback
                0x0000000000015c5c       0x5c contiki-srf06-cc26xx.a(link-stats.o)
                0x0000000000015c5c                link_stats_input_callback
 .text.link_stats_init
                0x0000000000015cb8       0x28 contiki-srf06-cc26xx.a(link-stats.o)
                0x0000000000015cb8                link_stats_init
 .text.parse    0x0000000000015ce0       0xa0 contiki-srf06-cc26xx.a(framer-802154.o)
 .text.create_frame.isra.0
                0x0000000000015d80      0x144 contiki-srf06-cc26xx.a(framer-802154.o)
 .text.create   0x0000000000015ec4        0x8 contiki-srf06-cc26xx.a(framer-802154.o)
 .text.hdr_length
                0x0000000000015ecc        0x8 contiki-srf06-cc26xx.a(framer-802154.o)
 .text.frame802154_get_pan_id
                0x0000000000015ed4        0xc contiki-srf06-cc26xx.a(frame802154.o)
                0x0000000000015ed4                frame802154_get_pan_id
 .text.frame802154_has_panid
                0x0000000000015ee0       0xac contiki-srf06-cc26xx.a(frame802154.o)
                0x0000000000015ee0                frame802154_has_panid
 .text.field_len
                0x0000000000015f8c       0x88 contiki-srf06-cc26xx.a(frame802154.o)
 .text.frame802154_is_broadcast_addr
                0x0000000000016014       0x20 contiki-srf06-cc26xx.a(frame802154.o)
                0x0000000000016014                frame802154_is_broadcast_addr
 .text.frame802154_hdrlen
                0x0000000000016034       0x34 contiki-srf06-cc26xx.a(frame802154.o)
                0x0000000000016034                frame802154_hdrlen
 .text.frame802154_create_fcf
                0x0000000000016068       0x64 contiki-srf06-cc26xx.a(frame802154.o)
                0x0000000000016068                frame802154_create_fcf
 .text.frame802154_create
                0x00000000000160cc       0xbc contiki-srf06-cc26xx.a(frame802154.o)
                0x00000000000160cc                frame802154_create
 .text.frame802154_parse_fcf
                0x0000000000016188       0x44 contiki-srf06-cc26xx.a(frame802154.o)
                0x0000000000016188                frame802154_parse_fcf
 .text.frame802154_parse
                0x00000000000161cc      0x138 contiki-srf06-cc26xx.a(frame802154.o)
                0x00000000000161cc                frame802154_parse
 .text.input_packet
                0x0000000000016304        0xc contiki-srf06-cc26xx.a(csma.o)
 .text.on       0x0000000000016310        0xc contiki-srf06-cc26xx.a(csma.o)
 .text.off      0x000000000001631c        0xc contiki-srf06-cc26xx.a(csma.o)
 .text.channel_check_interval
                0x0000000000016328       0x10 contiki-srf06-cc26xx.a(csma.o)
 .text.transmit_packet_list
                0x0000000000016338       0x34 contiki-srf06-cc26xx.a(csma.o)
 .text.schedule_transmission
                0x000000000001636c       0x58 contiki-srf06-cc26xx.a(csma.o)
 .text.send_packet
                0x00000000000163c4      0x154 contiki-srf06-cc26xx.a(csma.o)
 .text.init     0x0000000000016518       0x24 contiki-srf06-cc26xx.a(csma.o)
 .text.tx_done  0x000000000001653c       0x90 contiki-srf06-cc26xx.a(csma.o)
 .text.packet_sent
                0x00000000000165cc       0xe8 contiki-srf06-cc26xx.a(csma.o)
 .text.duty_cycle
                0x00000000000166b4        0x4 contiki-srf06-cc26xx.a(contikimac.o)
 .text.init     0x00000000000166b8       0x40 contiki-srf06-cc26xx.a(contikimac.o)
 .text.on.part.0
                0x00000000000166f8       0x14 contiki-srf06-cc26xx.a(contikimac.o)
 .text.off      0x000000000001670c       0x38 contiki-srf06-cc26xx.a(contikimac.o)
 .text.recv_burst_off
                0x0000000000016744       0x14 contiki-srf06-cc26xx.a(contikimac.o)
 .text.powercycle_turn_radio_off.part.2
                0x0000000000016758       0x10 contiki-srf06-cc26xx.a(contikimac.o)
 .text.turn_off
                0x0000000000016768       0x44 contiki-srf06-cc26xx.a(contikimac.o)
 .text.turn_on  0x00000000000167ac       0x44 contiki-srf06-cc26xx.a(contikimac.o)
 .text.schedule_powercycle_fixed.part.5
                0x00000000000167f0       0x2c contiki-srf06-cc26xx.a(contikimac.o)
 .text.input_packet
                0x000000000001681c       0xc4 contiki-srf06-cc26xx.a(contikimac.o)
 .text.send_packet.isra.8
                0x00000000000168e0      0x23c contiki-srf06-cc26xx.a(contikimac.o)
 .text.qsend_list
                0x0000000000016b1c       0xec contiki-srf06-cc26xx.a(contikimac.o)
 .text.qsend_packet
                0x0000000000016c08       0x24 contiki-srf06-cc26xx.a(contikimac.o)
 .text.powercycle_wrapper
                0x0000000000016c2c      0x264 contiki-srf06-cc26xx.a(contikimac.o)
 .text.init     0x0000000000016e90        0x4 contiki-srf06-cc26xx.a(nullsec.o)
 .text.input    0x0000000000016e94        0xc contiki-srf06-cc26xx.a(nullsec.o)
 .text.send     0x0000000000016ea0       0x20 contiki-srf06-cc26xx.a(nullsec.o)
 .text.coap_set_option_header
                0x0000000000016ec0       0x90 contiki-srf06-cc26xx.a(er-coap.o)
 .text.coap_serialize_int_option
                0x0000000000016f50       0x68 contiki-srf06-cc26xx.a(er-coap.o)
 .text.coap_merge_multi_option
                0x0000000000016fb8       0x34 contiki-srf06-cc26xx.a(er-coap.o)
 .text.coap_get_variable
                0x0000000000016fec       0x78 contiki-srf06-cc26xx.a(er-coap.o)
 .text.coap_serialize_array_option.part.0
                0x0000000000017064       0x20 contiki-srf06-cc26xx.a(er-coap.o)
 .text.coap_serialize_array_option
                0x0000000000017084       0x94 contiki-srf06-cc26xx.a(er-coap.o)
 .text.coap_init_connection
                0x0000000000017118       0x28 contiki-srf06-cc26xx.a(er-coap.o)
                0x0000000000017118                coap_init_connection
 .text.coap_get_mid
                0x0000000000017140       0x10 contiki-srf06-cc26xx.a(er-coap.o)
                0x0000000000017140                coap_get_mid
 .text.coap_init_message
                0x0000000000017150       0x1c contiki-srf06-cc26xx.a(er-coap.o)
                0x0000000000017150                coap_init_message
 .text.coap_serialize_message
                0x000000000001716c      0x31c contiki-srf06-cc26xx.a(er-coap.o)
                0x000000000001716c                coap_serialize_message
 .text.coap_send_message
                0x0000000000017488       0x40 contiki-srf06-cc26xx.a(er-coap.o)
                0x0000000000017488                coap_send_message
 .text.coap_parse_message
                0x00000000000174c8      0x394 contiki-srf06-cc26xx.a(er-coap.o)
                0x00000000000174c8                coap_parse_message
 .text.coap_get_query_variable
                0x000000000001785c       0x24 contiki-srf06-cc26xx.a(er-coap.o)
                0x000000000001785c                coap_get_query_variable
 .text.coap_get_post_variable
                0x0000000000017880       0x20 contiki-srf06-cc26xx.a(er-coap.o)
                0x0000000000017880                coap_get_post_variable
 .text.coap_set_status_code
                0x00000000000178a0        0xc contiki-srf06-cc26xx.a(er-coap.o)
                0x00000000000178a0                coap_set_status_code
 .text.coap_set_token
                0x00000000000178ac       0x18 contiki-srf06-cc26xx.a(er-coap.o)
                0x00000000000178ac                coap_set_token
 .text.coap_get_header_content_format
                0x00000000000178c4       0x18 contiki-srf06-cc26xx.a(er-coap.o)
                0x00000000000178c4                coap_get_header_content_format
 .text.coap_set_header_content_format
                0x00000000000178dc       0x10 contiki-srf06-cc26xx.a(er-coap.o)
                0x00000000000178dc                coap_set_header_content_format
 .text.coap_get_header_accept
                0x00000000000178ec       0x1c contiki-srf06-cc26xx.a(er-coap.o)
                0x00000000000178ec                coap_get_header_accept
 .text.coap_get_header_max_age
                0x0000000000017908       0x10 contiki-srf06-cc26xx.a(er-coap.o)
                0x0000000000017908                coap_get_header_max_age
 .text.coap_set_header_max_age
                0x0000000000017918       0x10 contiki-srf06-cc26xx.a(er-coap.o)
                0x0000000000017918                coap_set_header_max_age
 .text.coap_set_header_etag
                0x0000000000017928       0x24 contiki-srf06-cc26xx.a(er-coap.o)
                0x0000000000017928                coap_set_header_etag
 .text.coap_get_header_if_match
                0x000000000001794c       0x1c contiki-srf06-cc26xx.a(er-coap.o)
                0x000000000001794c                coap_get_header_if_match
 .text.coap_get_header_if_none_match
                0x0000000000017968        0x8 contiki-srf06-cc26xx.a(er-coap.o)
                0x0000000000017968                coap_get_header_if_none_match
 .text.coap_get_header_uri_host
                0x0000000000017970       0x18 contiki-srf06-cc26xx.a(er-coap.o)
                0x0000000000017970                coap_get_header_uri_host
 .text.coap_get_header_uri_path
                0x0000000000017988       0x18 contiki-srf06-cc26xx.a(er-coap.o)
                0x0000000000017988                coap_get_header_uri_path
 .text.coap_set_header_uri_path
                0x00000000000179a0       0x28 contiki-srf06-cc26xx.a(er-coap.o)
                0x00000000000179a0                coap_set_header_uri_path
 .text.coap_get_header_uri_query
                0x00000000000179c8       0x18 contiki-srf06-cc26xx.a(er-coap.o)
                0x00000000000179c8                coap_get_header_uri_query
 .text.coap_set_header_location_path
                0x00000000000179e0       0x60 contiki-srf06-cc26xx.a(er-coap.o)
                0x00000000000179e0                coap_set_header_location_path
 .text.coap_set_header_observe
                0x0000000000017a40       0x10 contiki-srf06-cc26xx.a(er-coap.o)
                0x0000000000017a40                coap_set_header_observe
 .text.coap_get_header_block2
                0x0000000000017a50       0x3c contiki-srf06-cc26xx.a(er-coap.o)
                0x0000000000017a50                coap_get_header_block2
 .text.coap_set_header_block2
                0x0000000000017a8c       0x38 contiki-srf06-cc26xx.a(er-coap.o)
                0x0000000000017a8c                coap_set_header_block2
 .text.coap_get_header_size2
                0x0000000000017ac4       0x1c contiki-srf06-cc26xx.a(er-coap.o)
                0x0000000000017ac4                coap_get_header_size2
 .text.coap_set_header_size2
                0x0000000000017ae0       0x10 contiki-srf06-cc26xx.a(er-coap.o)
                0x0000000000017ae0                coap_set_header_size2
 .text.coap_get_payload
                0x0000000000017af0       0x14 contiki-srf06-cc26xx.a(er-coap.o)
                0x0000000000017af0                coap_get_payload
 .text.coap_set_payload
                0x0000000000017b04       0x14 contiki-srf06-cc26xx.a(er-coap.o)
                0x0000000000017b04                coap_set_payload
 .text.sensor_common_read_reg
                0x0000000000017b18       0x1c contiki-srf06-cc26xx.a(sensor-common.o)
                0x0000000000017b18                sensor_common_read_reg
 .text.sensor_common_write_reg
                0x0000000000017b34       0x38 contiki-srf06-cc26xx.a(sensor-common.o)
                0x0000000000017b34                sensor_common_write_reg
 .text.sensor_common_set_error_data
                0x0000000000017b6c       0x10 contiki-srf06-cc26xx.a(sensor-common.o)
                0x0000000000017b6c                sensor_common_set_error_data
 .text.aux_ctrl_power_up
                0x0000000000017b7c       0x28 contiki-srf06-cc26xx.a(aux-ctrl.o)
                0x0000000000017b7c                aux_ctrl_power_up
 .text.aux_ctrl_register_consumer
                0x0000000000017ba4       0x40 contiki-srf06-cc26xx.a(aux-ctrl.o)
                0x0000000000017ba4                aux_ctrl_register_consumer
 .text.aux_ctrl_power_down
                0x0000000000017be4       0x6c contiki-srf06-cc26xx.a(aux-ctrl.o)
                0x0000000000017be4                aux_ctrl_power_down
 .text.aux_ctrl_unregister_consumer
                0x0000000000017c50       0x28 contiki-srf06-cc26xx.a(aux-ctrl.o)
                0x0000000000017c50                aux_ctrl_unregister_consumer
 .text.process_thread_rf_core_process
                0x0000000000017c78       0x58 contiki-srf06-cc26xx.a(rf-core.o)
 .text.rf_core_is_accessible
                0x0000000000017cd0       0x10 contiki-srf06-cc26xx.a(rf-core.o)
                0x0000000000017cd0                rf_core_is_accessible
 .text.rf_core_send_cmd
                0x0000000000017ce0       0x94 contiki-srf06-cc26xx.a(rf-core.o)
                0x0000000000017ce0                rf_core_send_cmd
 .text.rf_core_wait_cmd_done
                0x0000000000017d74       0x30 contiki-srf06-cc26xx.a(rf-core.o)
                0x0000000000017d74                rf_core_wait_cmd_done
 .text.rf_core_power_up
                0x0000000000017da4       0xcc contiki-srf06-cc26xx.a(rf-core.o)
                0x0000000000017da4                rf_core_power_up
 .text.rf_core_start_rat
                0x0000000000017e70       0x68 contiki-srf06-cc26xx.a(rf-core.o)
                0x0000000000017e70                rf_core_start_rat
 .text.rf_core_stop_rat
                0x0000000000017ed8       0x7c contiki-srf06-cc26xx.a(rf-core.o)
                0x0000000000017ed8                rf_core_stop_rat
 .text.rf_core_power_down
                0x0000000000017f54       0xec contiki-srf06-cc26xx.a(rf-core.o)
                0x0000000000017f54                rf_core_power_down
 .text.rf_core_set_modesel
                0x0000000000018040       0x44 contiki-srf06-cc26xx.a(rf-core.o)
                0x0000000000018040                rf_core_set_modesel
 .text.rf_core_boot
                0x0000000000018084       0x1c contiki-srf06-cc26xx.a(rf-core.o)
                0x0000000000018084                rf_core_boot
 .text.rf_core_restart_rat
                0x00000000000180a0       0x18 contiki-srf06-cc26xx.a(rf-core.o)
                0x00000000000180a0                rf_core_restart_rat
 .text.rf_core_setup_interrupts
                0x00000000000180b8       0x74 contiki-srf06-cc26xx.a(rf-core.o)
                0x00000000000180b8                rf_core_setup_interrupts
 .text.rf_core_cmd_done_en
                0x000000000001812c       0x28 contiki-srf06-cc26xx.a(rf-core.o)
                0x000000000001812c                rf_core_cmd_done_en
 .text.rf_core_cmd_done_dis
                0x0000000000018154       0x18 contiki-srf06-cc26xx.a(rf-core.o)
                0x0000000000018154                rf_core_cmd_done_dis
 .text.rf_core_get_last_radio_op
                0x000000000001816c        0xc contiki-srf06-cc26xx.a(rf-core.o)
                0x000000000001816c                rf_core_get_last_radio_op
 .text.rf_core_init_radio_op
                0x0000000000018178       0x1c contiki-srf06-cc26xx.a(rf-core.o)
                0x0000000000018178                rf_core_init_radio_op
 .text.rf_core_primary_mode_register
                0x0000000000018194        0xc contiki-srf06-cc26xx.a(rf-core.o)
                0x0000000000018194                rf_core_primary_mode_register
 .text.rf_core_primary_mode_abort
                0x00000000000181a0       0x14 contiki-srf06-cc26xx.a(rf-core.o)
                0x00000000000181a0                rf_core_primary_mode_abort
 .text.rf_core_primary_mode_restore
                0x00000000000181b4       0x14 contiki-srf06-cc26xx.a(rf-core.o)
                0x00000000000181b4                rf_core_primary_mode_restore
 .text.RFCCPE1IntHandler
                0x00000000000181c8       0x28 contiki-srf06-cc26xx.a(rf-core.o)
                0x00000000000181c8                RFCCPE1IntHandler
 .text.RFCCPE0IntHandler
                0x00000000000181f0       0x5c contiki-srf06-cc26xx.a(rf-core.o)
                0x00000000000181f0                RFCCPE0IntHandler
 .text.stimer_set
                0x000000000001824c       0x10 contiki-srf06-cc26xx.a(stimer.o)
                0x000000000001824c                stimer_set
 .text.stimer_expired
                0x000000000001825c       0x20 contiki-srf06-cc26xx.a(stimer.o)
                0x000000000001825c                stimer_expired
 .text.update_nbr
                0x000000000001827c      0x110 contiki-srf06-cc26xx.a(rpl-nbr-policy.)
 .text.handle_periodic_timer
                0x000000000001838c       0x14 contiki-srf06-cc26xx.a(rpl-nbr-policy.)
 .text.find_removable_dio
                0x00000000000183a0       0x40 contiki-srf06-cc26xx.a(rpl-nbr-policy.)
                0x00000000000183a0                find_removable_dio
 .text.rpl_nbr_policy_find_removable
                0x00000000000183e0       0x64 contiki-srf06-cc26xx.a(rpl-nbr-policy.)
                0x00000000000183e0                rpl_nbr_policy_find_removable
 .text.NOROM_SetupGetTrimForXoscHfCtl.part.3
                0x0000000000018444       0x20 contiki-srf06-cc26xx.a(setup_rom.o)
 .text.NOROM_SetupGetTrimForRadcExtCfg.part.4
                0x0000000000018464       0x1c contiki-srf06-cc26xx.a(setup_rom.o)
 .text.NOROM_SetupAfterColdResetWakeupFromShutDownCfg1
                0x0000000000018480       0x7c contiki-srf06-cc26xx.a(setup_rom.o)
                0x0000000000018480                NOROM_SetupAfterColdResetWakeupFromShutDownCfg1
 .text.NOROM_SetupAfterColdResetWakeupFromShutDownCfg3
                0x00000000000184fc      0x1a0 contiki-srf06-cc26xx.a(setup_rom.o)
                0x00000000000184fc                NOROM_SetupAfterColdResetWakeupFromShutDownCfg3
 .text.NOROM_SetupGetTrimForAnabypassValue1
                0x000000000001869c       0x64 contiki-srf06-cc26xx.a(setup_rom.o)
                0x000000000001869c                NOROM_SetupGetTrimForAnabypassValue1
 .text.NOROM_SetupGetTrimForAmpcompCtrl
                0x0000000000018700       0x74 contiki-srf06-cc26xx.a(setup_rom.o)
                0x0000000000018700                NOROM_SetupGetTrimForAmpcompCtrl
 .text.NOROM_SetupAfterColdResetWakeupFromShutDownCfg2
                0x0000000000018774      0x194 contiki-srf06-cc26xx.a(setup_rom.o)
                0x0000000000018774                NOROM_SetupAfterColdResetWakeupFromShutDownCfg2
 .text.NOROM_SetupSetCacheModeAccordingToCcfgSetting
                0x0000000000018908       0x68 contiki-srf06-cc26xx.a(setup_rom.o)
                0x0000000000018908                NOROM_SetupSetCacheModeAccordingToCcfgSetting
 .text.mac_sequence_is_duplicate
                0x0000000000018970       0x4c contiki-srf06-cc26xx.a(mac-sequence.o)
                0x0000000000018970                mac_sequence_is_duplicate
 .text.mac_sequence_register_seqno
                0x00000000000189bc       0x74 contiki-srf06-cc26xx.a(mac-sequence.o)
                0x00000000000189bc                mac_sequence_register_seqno
 .text.mac_call_sent_callback
                0x0000000000018a30       0x18 contiki-srf06-cc26xx.a(mac.o)
                0x0000000000018a30                mac_call_sent_callback
 .text          0x0000000000018a48       0x10 /usr/lib/gcc/arm-none-eabi/5.4.1/../../../arm-none-eabi/lib/armv7-m/libm.a(lib_a-w_exp2.o)
                0x0000000000018a48                exp2
 .text          0x0000000000018a58      0x330 /usr/lib/gcc/arm-none-eabi/5.4.1/../../../arm-none-eabi/lib/armv7-m/libm.a(lib_a-w_pow.o)
                0x0000000000018a58                pow
 .text          0x0000000000018d88      0x188 /usr/lib/gcc/arm-none-eabi/5.4.1/../../../arm-none-eabi/lib/armv7-m/libm.a(lib_a-e_sqrt.o)
                0x0000000000018d88                __ieee754_sqrt
 .text          0x0000000000018f10        0x8 /usr/lib/gcc/arm-none-eabi/5.4.1/../../../arm-none-eabi/lib/armv7-m/libm.a(lib_a-s_fabs.o)
                0x0000000000018f10                fabs
 .text          0x0000000000018f18        0xc /usr/lib/gcc/arm-none-eabi/5.4.1/../../../arm-none-eabi/lib/armv7-m/libm.a(lib_a-s_finite.o)
                0x0000000000018f18                finite
 .text          0x0000000000018f24        0x4 /usr/lib/gcc/arm-none-eabi/5.4.1/../../../arm-none-eabi/lib/armv7-m/libm.a(lib_a-s_matherr.o)
                0x0000000000018f24                matherr
 .text          0x0000000000018f28        0xc /usr/lib/gcc/arm-none-eabi/5.4.1/../../../arm-none-eabi/lib/armv7-m/libm.a(lib_a-s_nan.o)
                0x0000000000018f28                nan
 .text          0x0000000000018f34      0x120 /usr/lib/gcc/arm-none-eabi/5.4.1/../../../arm-none-eabi/lib/armv7-m/libm.a(lib_a-s_rint.o)
                0x0000000000018f34                rint
 .text          0x0000000000019054       0x10 /usr/lib/gcc/arm-none-eabi/5.4.1/../../../arm-none-eabi/lib/armv7-m/libm.a(lib_a-s_copysign.o)
                0x0000000000019054                copysign
 .text          0x0000000000019064      0x370 /usr/lib/gcc/arm-none-eabi/5.4.1/armv7-m/libgcc.a(_arm_addsubdf3.o)
                0x0000000000019064                __aeabi_drsub
                0x000000000001906c                __aeabi_dsub
                0x000000000001906c                __subdf3
                0x0000000000019070                __adddf3
                0x0000000000019070                __aeabi_dadd
                0x00000000000192e8                __aeabi_ui2d
                0x00000000000192e8                __floatunsidf
                0x0000000000019308                __floatsidf
                0x0000000000019308                __aeabi_i2d
                0x000000000001932c                __extendsfdf2
                0x000000000001932c                __aeabi_f2d
                0x0000000000019368                __aeabi_ul2d
                0x0000000000019368                __floatundidf
                0x0000000000019378                __floatdidf
                0x0000000000019378                __aeabi_l2d
 .text          0x00000000000193d4      0x424 /usr/lib/gcc/arm-none-eabi/5.4.1/armv7-m/libgcc.a(_arm_muldivdf3.o)
                0x00000000000193d4                __aeabi_dmul
                0x00000000000193d4                __muldf3
                0x0000000000019628                __aeabi_ddiv
                0x0000000000019628                __divdf3
 .text          0x00000000000197f8      0x110 /usr/lib/gcc/arm-none-eabi/5.4.1/armv7-m/libgcc.a(_arm_cmpdf2.o)
                0x00000000000197f8                __gtdf2
                0x00000000000197f8                __gedf2
                0x0000000000019800                __ltdf2
                0x0000000000019800                __ledf2
                0x0000000000019808                __cmpdf2
                0x0000000000019808                __eqdf2
                0x0000000000019808                __nedf2
                0x0000000000019884                __aeabi_cdrcmple
                0x0000000000019894                __aeabi_cdcmple
                0x0000000000019894                __aeabi_cdcmpeq
                0x00000000000198a4                __aeabi_dcmpeq
                0x00000000000198b8                __aeabi_dcmplt
                0x00000000000198cc                __aeabi_dcmple
                0x00000000000198e0                __aeabi_dcmpge
                0x00000000000198f4                __aeabi_dcmpgt
 .text          0x0000000000019908       0x2c /usr/lib/gcc/arm-none-eabi/5.4.1/armv7-m/libgcc.a(_arm_unorddf2.o)
                0x0000000000019908                __aeabi_dcmpun
                0x0000000000019908                __unorddf2
 .text          0x0000000000019934       0xa0 /usr/lib/gcc/arm-none-eabi/5.4.1/armv7-m/libgcc.a(_arm_truncdfsf2.o)
                0x0000000000019934                __aeabi_d2f
                0x0000000000019934                __truncdfsf2
 .text          0x00000000000199d4      0x21c /usr/lib/gcc/arm-none-eabi/5.4.1/armv7-m/libgcc.a(_arm_addsubsf3.o)
                0x00000000000199d4                __aeabi_frsub
                0x00000000000199dc                __subsf3
                0x00000000000199dc                __aeabi_fsub
                0x00000000000199e0                __aeabi_fadd
                0x00000000000199e0                __addsf3
                0x0000000000019b40                __aeabi_ui2f
                0x0000000000019b40                __floatunsisf
                0x0000000000019b48                __aeabi_i2f
                0x0000000000019b48                __floatsisf
                0x0000000000019b64                __floatundisf
                0x0000000000019b64                __aeabi_ul2f
                0x0000000000019b74                __floatdisf
                0x0000000000019b74                __aeabi_l2f
 .text          0x0000000000019bf0      0x2a0 /usr/lib/gcc/arm-none-eabi/5.4.1/armv7-m/libgcc.a(_arm_muldivsf3.o)
                0x0000000000019bf0                __mulsf3
                0x0000000000019bf0                __aeabi_fmul
                0x0000000000019d58                __divsf3
                0x0000000000019d58                __aeabi_fdiv
 .text          0x0000000000019e90       0x4c /usr/lib/gcc/arm-none-eabi/5.4.1/armv7-m/libgcc.a(_arm_fixsfsi.o)
                0x0000000000019e90                __fixsfsi
                0x0000000000019e90                __aeabi_f2iz
 .text          0x0000000000019edc       0x30 /usr/lib/gcc/arm-none-eabi/5.4.1/armv7-m/libgcc.a(_aeabi_uldivmod.o)
                0x0000000000019edc                __aeabi_uldivmod
 .text          0x0000000000019f0c      0x2ec /usr/lib/gcc/arm-none-eabi/5.4.1/armv7-m/libgcc.a(_udivmoddi4.o)
                0x0000000000019f0c                __udivmoddi4
 .text          0x000000000001a1f8        0x4 /usr/lib/gcc/arm-none-eabi/5.4.1/armv7-m/libgcc.a(_dvmd_tls.o)
                0x000000000001a1f8                __aeabi_ldiv0
                0x000000000001a1f8                __aeabi_idiv0
 .text          0x000000000001a1fc       0x10 /usr/lib/gcc/arm-none-eabi/5.4.1/../../../arm-none-eabi/lib/armv7-m/libc.a(lib_a-atoi.o)
                0x000000000001a1fc                atoi
                0x000000000001a204                _atoi_r
 .text          0x000000000001a20c        0xc /usr/lib/gcc/arm-none-eabi/5.4.1/../../../arm-none-eabi/lib/armv7-m/libc.a(lib_a-errno.o)
                0x000000000001a20c                __errno
 .text          0x000000000001a218       0x8c /usr/lib/gcc/arm-none-eabi/5.4.1/../../../arm-none-eabi/lib/armv7-m/libc.a(lib_a-memchr-stub.o)
                0x000000000001a218                memchr
 .text          0x000000000001a2a4       0x64 /usr/lib/gcc/arm-none-eabi/5.4.1/../../../arm-none-eabi/lib/armv7-m/libc.a(lib_a-memcmp.o)
                0x000000000001a2a4                memcmp
 .text          0x000000000001a308       0xec /usr/lib/gcc/arm-none-eabi/5.4.1/../../../arm-none-eabi/lib/armv7-m/libc.a(lib_a-memcpy.o)
                0x000000000001a308                memcpy
 .text          0x000000000001a3f4       0xc8 /usr/lib/gcc/arm-none-eabi/5.4.1/../../../arm-none-eabi/lib/armv7-m/libc.a(lib_a-memmove.o)
                0x000000000001a3f4                memmove
 .text          0x000000000001a4bc       0x9c /usr/lib/gcc/arm-none-eabi/5.4.1/../../../arm-none-eabi/lib/armv7-m/libc.a(lib_a-memset.o)
                0x000000000001a4bc                memset
 .text          0x000000000001a558       0xd0 /usr/lib/gcc/arm-none-eabi/5.4.1/../../../arm-none-eabi/lib/armv7-m/libc.a(lib_a-strchr.o)
                0x000000000001a558                strchr
 .text          0x000000000001a628       0x5c /usr/lib/gcc/arm-none-eabi/5.4.1/../../../arm-none-eabi/lib/armv7-m/libc.a(lib_a-strlen-stub.o)
                0x000000000001a628                strlen
 .text          0x000000000001a684       0x54 /usr/lib/gcc/arm-none-eabi/5.4.1/../../../arm-none-eabi/lib/armv7-m/libc.a(lib_a-strncasecmp.o)
                0x000000000001a684                strncasecmp
 .text          0x000000000001a6d8       0x9c /usr/lib/gcc/arm-none-eabi/5.4.1/../../../arm-none-eabi/lib/armv7-m/libc.a(lib_a-strncmp.o)
                0x000000000001a6d8                strncmp
 .text          0x000000000001a774       0x68 /usr/lib/gcc/arm-none-eabi/5.4.1/../../../arm-none-eabi/lib/armv7-m/libc.a(lib_a-strncpy.o)
                0x000000000001a774                strncpy
 .text          0x000000000001a7dc      0x140 /usr/lib/gcc/arm-none-eabi/5.4.1/../../../arm-none-eabi/lib/armv7-m/libc.a(lib_a-strtol.o)
                0x000000000001a7dc                _strtol_r
                0x000000000001a904                strtol
 *(SORT(.rodata*))
 *fill*         0x000000000001a91c        0x4 00000000
 .rodata        0x000000000001a920       0x10 /usr/lib/gcc/arm-none-eabi/5.4.1/../../../arm-none-eabi/lib/armv7-m/libm.a(lib_a-s_rint.o)
 .rodata.autostart_processes
                0x000000000001a930        0x8 cc26xx-web-demo.co
                0x000000000001a930                autostart_processes
 .rodata.str1.4
                0x000000000001a938      0x304 cc26xx-web-demo.co
                                        0x30c (size before relaxing)
 .rodata.str1.4
                0x000000000001ac3c       0x50 obj_srf06-cc26xx/res-leds.o
                                         0x5c (size before relaxing)
 .rodata.str1.4
                0x000000000001ac8c       0x3d obj_srf06-cc26xx/res-toggle-leds.o
 *fill*         0x000000000001acc9        0x3 00000000
 .rodata.str1.4
                0x000000000001accc      0x15b obj_srf06-cc26xx/res-device.o
 *fill*         0x000000000001ae27        0x1 00000000
 .rodata.str1.4
                0x000000000001ae28      0x20c obj_srf06-cc26xx/res-sensors.o
                                        0x210 (size before relaxing)
 .rodata.str1.4
                0x000000000001b034       0xaa obj_srf06-cc26xx/res-ble-advd.o
                                         0xba (size before relaxing)
 *fill*         0x000000000001b0de        0x2 00000000
 .rodata.str1.4
                0x000000000001b0e0       0x99 obj_srf06-cc26xx/res-net.o
                                         0xa1 (size before relaxing)
 *fill*         0x000000000001b179        0x3 00000000
 .rodata.str1.4
                0x000000000001b17c       0x2b obj_srf06-cc26xx/cetic-6lbr-client.o
                                         0x33 (size before relaxing)
 *fill*         0x000000000001b1a7        0x1 00000000
 .rodata.str1.4
                0x000000000001b1a8      0x1bb obj_srf06-cc26xx/coap-server.o
 *fill*         0x000000000001b363        0x1 00000000
 .rodata.str1.4
                0x000000000001b364       0x51 obj_srf06-cc26xx/net-uart.o
                                         0x55 (size before relaxing)
 *fill*         0x000000000001b3b5        0x3 00000000
 .rodata.str1.4
                0x000000000001b3b8      0x2c7 obj_srf06-cc26xx/mqtt-client.o
                                        0x2e7 (size before relaxing)
 *fill*         0x000000000001b67f        0x1 00000000
 .rodata.http_body_start
                0x000000000001b680        0x7 obj_srf06-cc26xx/httpd-simple.o
 *fill*         0x000000000001b687        0x1 00000000
 .rodata.config_div_right
                0x000000000001b688       0x14 obj_srf06-cc26xx/httpd-simple.o
 .rodata.http_index_html
                0x000000000001b69c        0xc obj_srf06-cc26xx/httpd-simple.o
 .rodata.http_post
                0x000000000001b6a8        0x6 obj_srf06-cc26xx/httpd-simple.o
 *fill*         0x000000000001b6ae        0x2 00000000
 .rodata.config_div_left
                0x000000000001b6b0       0x13 obj_srf06-cc26xx/httpd-simple.o
 *fill*         0x000000000001b6c3        0x1 00000000
 .rodata.http_head_charset
                0x000000000001b6c4       0x17 obj_srf06-cc26xx/httpd-simple.o
 *fill*         0x000000000001b6db        0x1 00000000
 .rodata.http_header_400
                0x000000000001b6dc       0x1b obj_srf06-cc26xx/httpd-simple.o
 *fill*         0x000000000001b6f7        0x1 00000000
 .rodata.http_header_404
                0x000000000001b6f8       0x19 obj_srf06-cc26xx/httpd-simple.o
 *fill*         0x000000000001b711        0x3 00000000
 .rodata.http_content_type_html
                0x000000000001b714        0xa obj_srf06-cc26xx/httpd-simple.o
 *fill*         0x000000000001b71e        0x2 00000000
 .rodata.http_html_start
                0x000000000001b720        0xd obj_srf06-cc26xx/httpd-simple.o
 *fill*         0x000000000001b72d        0x3 00000000
 .rodata.http_title_start
                0x000000000001b730        0x8 obj_srf06-cc26xx/httpd-simple.o
 .rodata.config_div_close
                0x000000000001b738        0x7 obj_srf06-cc26xx/httpd-simple.o
 *fill*         0x000000000001b73f        0x1 00000000
 .rodata.http_bottom
                0x000000000001b740        0xf obj_srf06-cc26xx/httpd-simple.o
 *fill*         0x000000000001b74f        0x1 00000000
 .rodata.http_header_200
                0x000000000001b750       0x12 obj_srf06-cc26xx/httpd-simple.o
 *fill*         0x000000000001b762        0x2 00000000
 .rodata.http_header_503
                0x000000000001b764       0x23 obj_srf06-cc26xx/httpd-simple.o
 *fill*         0x000000000001b787        0x1 00000000
 .rodata.http_head_end
                0x000000000001b788        0x8 obj_srf06-cc26xx/httpd-simple.o
 .rodata.http_title_end
                0x000000000001b790        0x9 obj_srf06-cc26xx/httpd-simple.o
 *fill*         0x000000000001b799        0x3 00000000
 .rodata.http_content_type_plain
                0x000000000001b79c        0xb obj_srf06-cc26xx/httpd-simple.o
 *fill*         0x000000000001b7a7        0x1 00000000
 .rodata.http_header_411
                0x000000000001b7a8       0x1f obj_srf06-cc26xx/httpd-simple.o
 *fill*         0x000000000001b7c7        0x1 00000000
 .rodata.http_header_413
                0x000000000001b7c8       0x28 obj_srf06-cc26xx/httpd-simple.o
 .rodata.http_get
                0x000000000001b7f0        0x5 obj_srf06-cc26xx/httpd-simple.o
 *fill*         0x000000000001b7f5        0x3 00000000
 .rodata.http_doctype
                0x000000000001b7f8       0x10 obj_srf06-cc26xx/httpd-simple.o
 .rodata.str1.4
                0x000000000001b808      0x91e obj_srf06-cc26xx/httpd-simple.o
                                        0x936 (size before relaxing)
 *fill*         0x000000000001c126        0x2 00000000
 .rodata.http_header_302
                0x000000000001c128       0x15 obj_srf06-cc26xx/httpd-simple.o
 *fill*         0x000000000001c13d        0x3 00000000
 .rodata.coap_rest_implementation
                0x000000000001c140      0x10c contiki-srf06-cc26xx.a(er-coap-engine.)
                0x000000000001c140                coap_rest_implementation
 .rodata.str1.4
                0x000000000001c24c       0x6c contiki-srf06-cc26xx.a(er-coap-engine.)
 .rodata.str1.4
                0x000000000001c2b8       0x11 contiki-srf06-cc26xx.a(er-coap-observe)
 *fill*         0x000000000001c2c9        0x3 00000000
 .rodata.str1.4
                0x000000000001c2cc        0x6 contiki-srf06-cc26xx.a(er-coap-res-wel)
                                         0x1a (size before relaxing)
 *fill*         0x000000000001c2d2        0x2 00000000
 .rodata.str1.4
                0x000000000001c2d4        0xc contiki-srf06-cc26xx.a(rest-engine.o)
 .rodata.str1.4
                0x000000000001c2e0       0x15 contiki-srf06-cc26xx.a(mqtt.o)
 *fill*         0x000000000001c2f5        0x3 00000000
 .rodata.str1.4
                0x000000000001c2f8       0xda contiki-srf06-cc26xx.a(contiki-main.o)
                                         0xf2 (size before relaxing)
 *fill*         0x000000000001c3d2        0x2 00000000
 .rodata.str1.4
                0x000000000001c3d4        0x8 contiki-srf06-cc26xx.a(sensors.o)
 .rodata.str1.4
                0x000000000001c3dc        0x7 contiki-srf06-cc26xx.a(bmp-280-sensor.)
 *fill*         0x000000000001c3e3        0x1 00000000
 .rodata.bmp_280_sensor
                0x000000000001c3e4       0x10 contiki-srf06-cc26xx.a(bmp-280-sensor.)
                0x000000000001c3e4                bmp_280_sensor
 .rodata.tmp_007_sensor
                0x000000000001c3f4       0x10 contiki-srf06-cc26xx.a(tmp-007-sensor.)
                0x000000000001c3f4                tmp_007_sensor
 .rodata.str1.4
                0x000000000001c404        0x7 contiki-srf06-cc26xx.a(tmp-007-sensor.)
 *fill*         0x000000000001c40b        0x1 00000000
 .rodata.str1.4
                0x000000000001c40c        0x8 contiki-srf06-cc26xx.a(opt-3001-sensor)
 .rodata.opt_3001_sensor
                0x000000000001c414       0x10 contiki-srf06-cc26xx.a(opt-3001-sensor)
                0x000000000001c414                opt_3001_sensor
 .rodata.hdc_1000_sensor
                0x000000000001c424       0x10 contiki-srf06-cc26xx.a(hdc-1000-sensor)
                0x000000000001c424                hdc_1000_sensor
 .rodata.str1.4
                0x000000000001c434        0x8 contiki-srf06-cc26xx.a(hdc-1000-sensor)
 .rodata.mpu_9250_sensor
                0x000000000001c43c       0x10 contiki-srf06-cc26xx.a(mpu-9250-sensor)
                0x000000000001c43c                mpu_9250_sensor
 .rodata.str1.4
                0x000000000001c44c        0x8 contiki-srf06-cc26xx.a(mpu-9250-sensor)
 .rodata.str1.4
                0x000000000001c454        0x7 contiki-srf06-cc26xx.a(button-sensor.o)
 *fill*         0x000000000001c45b        0x1 00000000
 .rodata.button_left_sensor
                0x000000000001c45c       0x10 contiki-srf06-cc26xx.a(button-sensor.o)
                0x000000000001c45c                button_left_sensor
 .rodata.button_right_sensor
                0x000000000001c46c       0x10 contiki-srf06-cc26xx.a(button-sensor.o)
                0x000000000001c46c                button_right_sensor
 .rodata.reed_relay_sensor
                0x000000000001c47c       0x10 contiki-srf06-cc26xx.a(reed-relay.o)
                0x000000000001c47c                reed_relay_sensor
 .rodata.str1.4
                0x000000000001c48c        0x5 contiki-srf06-cc26xx.a(reed-relay.o)
 *fill*         0x000000000001c491        0x3 00000000
 .rodata        0x000000000001c494        0x4 contiki-srf06-cc26xx.a(ext-flash.o)
 .rodata.str1.4
                0x000000000001c498       0x10 contiki-srf06-cc26xx.a(batmon-sensor.o)
 .rodata.batmon_sensor
                0x000000000001c4a8       0x10 contiki-srf06-cc26xx.a(batmon-sensor.o)
                0x000000000001c4a8                batmon_sensor
 .rodata.str1.4
                0x000000000001c4b8       0x26 contiki-srf06-cc26xx.a(rf-ble.o)
 *fill*         0x000000000001c4de        0x2 00000000
 .rodata.output_power
                0x000000000001c4e0       0x68 contiki-srf06-cc26xx.a(ieee-mode.o)
 .rodata.ieee_mode_driver
                0x000000000001c548       0x38 contiki-srf06-cc26xx.a(ieee-mode.o)
                0x000000000001c548                ieee_mode_driver
 .rodata.mode_ieee
                0x000000000001c580        0x8 contiki-srf06-cc26xx.a(ieee-mode.o)
 .rodata.str1.4
                0x000000000001c588       0x1b contiki-srf06-cc26xx.a(soc-trng.o)
 *fill*         0x000000000001c5a3        0x1 00000000
 .rodata.buffer.4106
                0x000000000001c5a4       0x10 contiki-srf06-cc26xx.a(strformat.o)
 .rodata.buffer.4115
                0x000000000001c5b4       0x10 contiki-srf06-cc26xx.a(strformat.o)
 .rodata.str1.4
                0x000000000001c5c4       0x36 contiki-srf06-cc26xx.a(strformat.o)
                                         0x46 (size before relaxing)
 *fill*         0x000000000001c5fa        0x2 00000000
 .rodata.str1.4
                0x000000000001c5fc        0xc contiki-srf06-cc26xx.a(etimer.o)
 .rodata.str1.4
                0x000000000001c608        0xf contiki-srf06-cc26xx.a(ctimer.o)
 *fill*         0x000000000001c617        0x1 00000000
 .rodata.str1.4
                0x000000000001c618        0xe contiki-srf06-cc26xx.a(serial-line.o)
 *fill*         0x000000000001c626        0x2 00000000
 .rodata        0x000000000001c628        0x2 contiki-srf06-cc26xx.a(sicslowpan.o)
 *fill*         0x000000000001c62a        0x2 00000000
 .rodata.ttl_values
                0x000000000001c62c        0x4 contiki-srf06-cc26xx.a(sicslowpan.o)
 .rodata.unc_llconf
                0x000000000001c630        0x4 contiki-srf06-cc26xx.a(sicslowpan.o)
                0x000000000001c630                unc_llconf
 .rodata.llprefix
                0x000000000001c634        0x2 contiki-srf06-cc26xx.a(sicslowpan.o)
                0x000000000001c634                llprefix
 *fill*         0x000000000001c636        0x2 00000000
 .rodata.sicslowpan_driver
                0x000000000001c638        0xc contiki-srf06-cc26xx.a(sicslowpan.o)
                0x000000000001c638                sicslowpan_driver
 .rodata.unc_mxconf
                0x000000000001c644        0x4 contiki-srf06-cc26xx.a(sicslowpan.o)
                0x000000000001c644                unc_mxconf
 .rodata.unc_ctxconf
                0x000000000001c648        0x4 contiki-srf06-cc26xx.a(sicslowpan.o)
                0x000000000001c648                unc_ctxconf
 .rodata.str1.4
                0x000000000001c64c        0xb contiki-srf06-cc26xx.a(sicslowpan.o)
 *fill*         0x000000000001c657        0x1 00000000
 .rodata.str1.4
                0x000000000001c658       0x23 contiki-srf06-cc26xx.a(uip-debug.o)
                                         0x2b (size before relaxing)
 *fill*         0x000000000001c67b        0x1 00000000
 .rodata.str1.4
                0x000000000001c67c       0x13 contiki-srf06-cc26xx.a(tcp-socket.o)
 *fill*         0x000000000001c68f        0x1 00000000
 .rodata.str1.4
                0x000000000001c690        0xd contiki-srf06-cc26xx.a(tcpip.o)
 *fill*         0x000000000001c69d        0x3 00000000
 .rodata.linkaddr_null
                0x000000000001c6a0        0x8 contiki-srf06-cc26xx.a(linkaddr.o)
                0x000000000001c6a0                linkaddr_null
 .rodata.framer_802154
                0x000000000001c6a8        0xc contiki-srf06-cc26xx.a(framer-802154.o)
                0x000000000001c6a8                framer_802154
 .rodata.csma_driver
                0x000000000001c6b4       0x1c contiki-srf06-cc26xx.a(csma.o)
                0x000000000001c6b4                csma_driver
 .rodata.str1.4
                0x000000000001c6d0        0x5 contiki-srf06-cc26xx.a(csma.o)
 *fill*         0x000000000001c6d5        0x3 00000000
 .rodata.str1.4
                0x000000000001c6d8        0xb contiki-srf06-cc26xx.a(contikimac.o)
 *fill*         0x000000000001c6e3        0x1 00000000
 .rodata.contikimac_driver
                0x000000000001c6e4       0x20 contiki-srf06-cc26xx.a(contikimac.o)
                0x000000000001c6e4                contikimac_driver
 .rodata.str1.4
                0x000000000001c704        0x8 contiki-srf06-cc26xx.a(nullsec.o)
 .rodata.nullsec_driver
                0x000000000001c70c       0x10 contiki-srf06-cc26xx.a(nullsec.o)
                0x000000000001c70c                nullsec_driver
 .rodata.str1.4
                0x000000000001c71c       0xb4 contiki-srf06-cc26xx.a(er-coap.o)
                                         0xb5 (size before relaxing)
 .rodata.str1.4
                0x000000000001c7d0       0x46 contiki-srf06-cc26xx.a(rf-core.o)
 *fill*         0x000000000001c816        0x2 00000000
 .rodata.str1.4
                0x000000000001c818        0x4 /usr/lib/gcc/arm-none-eabi/5.4.1/../../../arm-none-eabi/lib/armv7-m/libm.a(lib_a-w_pow.o)
 .rodata.str1.4
                0x000000000001c81c        0x1 /usr/lib/gcc/arm-none-eabi/5.4.1/../../../arm-none-eabi/lib/armv7-m/libm.a(lib_a-e_pow.o)
 .rodata        0x000000000001c81c      0x101 /usr/lib/gcc/arm-none-eabi/5.4.1/../../../arm-none-eabi/lib/armv7-m/libc.a(lib_a-ctype_.o)
                0x000000000001c81c                _ctype_
 .rodata.str1.4
                0x000000000001c91d        0x2 /usr/lib/gcc/arm-none-eabi/5.4.1/../../../arm-none-eabi/lib/armv7-m/libc.a(lib_a-impure.o)
                0x000000000001c91f                _etext = .

.glue_7         0x000000000001c920        0x0
 .glue_7        0x000000000001c920        0x0 linker stubs

.glue_7t        0x000000000001c920        0x0
 .glue_7t       0x000000000001c920        0x0 linker stubs

.vfp11_veneer   0x000000000001c920        0x0
 .vfp11_veneer  0x000000000001c920        0x0 linker stubs

.v4_bx          0x000000000001c920        0x0
 .v4_bx         0x000000000001c920        0x0 linker stubs

.iplt           0x000000000001c920        0x0
 .iplt          0x000000000001c920        0x0 obj_srf06-cc26xx/startup_gcc.o

.data           0x0000000020000000      0xee2 load address 0x000000000001c91d
                0x0000000020000000                _data = .
 *(SORT(vtable))
 *(SORT(.data*))
 .data          0x0000000020000000      0x430 /usr/lib/gcc/arm-none-eabi/5.4.1/../../../arm-none-eabi/lib/armv7-m/libc.a(lib_a-impure.o)
                0x0000000020000000                _impure_ptr
 .data.mpu_acc_z_reading
                0x0000000020000430       0x2c cc26xx-web-demo.co
                0x0000000020000430                mpu_acc_z_reading
 .data.cc26xx_web_demo_process
                0x000000002000045c       0x10 cc26xx-web-demo.co
                0x000000002000045c                cc26xx_web_demo_process
 .data.opt_reading
                0x000000002000046c       0x2c cc26xx-web-demo.co
                0x000000002000046c                opt_reading
 .data.hdc_hum_reading
                0x0000000020000498       0x2c cc26xx-web-demo.co
                0x0000000020000498                hdc_hum_reading
 .data.batmon_volt_reading
                0x00000000200004c4       0x2c cc26xx-web-demo.co
                0x00000000200004c4                batmon_volt_reading
 .data.mpu_gyro_x_reading
                0x00000000200004f0       0x2c cc26xx-web-demo.co
                0x00000000200004f0                mpu_gyro_x_reading
 .data.sensor_handler
                0x000000002000051c        0x8 cc26xx-web-demo.co
                0x000000002000051c                sensor_handler
 .data.ping_interval_handler
                0x0000000020000524        0x8 cc26xx-web-demo.co
                0x0000000020000524                ping_interval_handler
 .data.mpu_gyro_y_reading
                0x000000002000052c       0x2c cc26xx-web-demo.co
                0x000000002000052c                mpu_gyro_y_reading
 .data.mpu_acc_y_reading
                0x0000000020000558       0x2c cc26xx-web-demo.co
                0x0000000020000558                mpu_acc_y_reading
 .data.defaults_handler
                0x0000000020000584        0x8 cc26xx-web-demo.co
                0x0000000020000584                defaults_handler
 .data.hdc_temp_reading
                0x000000002000058c       0x2c cc26xx-web-demo.co
                0x000000002000058c                hdc_temp_reading
 .data.tmp_obj_reading
                0x00000000200005b8       0x2c cc26xx-web-demo.co
                0x00000000200005b8                tmp_obj_reading
 .data.bmp_pres_reading
                0x00000000200005e4       0x2c cc26xx-web-demo.co
                0x00000000200005e4                bmp_pres_reading
 .data.mpu_acc_x_reading
                0x0000000020000610       0x2c cc26xx-web-demo.co
                0x0000000020000610                mpu_acc_x_reading
 .data.bmp_temp_reading
                0x000000002000063c       0x2c cc26xx-web-demo.co
                0x000000002000063c                bmp_temp_reading
 .data.mpu_gyro_z_reading
                0x0000000020000668       0x2c cc26xx-web-demo.co
                0x0000000020000668                mpu_gyro_z_reading
 .data.tmp_amb_reading
                0x0000000020000694       0x2c cc26xx-web-demo.co
                0x0000000020000694                tmp_amb_reading
 .data.batmon_temp_reading
                0x00000000200006c0       0x2c cc26xx-web-demo.co
                0x00000000200006c0                batmon_temp_reading
 .data.res_leds
                0x00000000200006ec       0x24 obj_srf06-cc26xx/res-leds.o
                0x00000000200006ec                res_leds
 .data.res_toggle_red
                0x0000000020000710       0x24 obj_srf06-cc26xx/res-toggle-leds.o
                0x0000000020000710                res_toggle_red
 .data.res_toggle_green
                0x0000000020000734       0x24 obj_srf06-cc26xx/res-toggle-leds.o
                0x0000000020000734                res_toggle_green
 .data.res_device_uptime
                0x0000000020000758       0x24 obj_srf06-cc26xx/res-device.o
                0x0000000020000758                res_device_uptime
 .data.res_device_cfg_reset
                0x000000002000077c       0x24 obj_srf06-cc26xx/res-device.o
                0x000000002000077c                res_device_cfg_reset
 .data.res_device_sw
                0x00000000200007a0       0x24 obj_srf06-cc26xx/res-device.o
                0x00000000200007a0                res_device_sw
 .data.res_device_hw
                0x00000000200007c4       0x24 obj_srf06-cc26xx/res-device.o
                0x00000000200007c4                res_device_hw
 .data.res_batmon_temp
                0x00000000200007e8       0x24 obj_srf06-cc26xx/res-sensors.o
                0x00000000200007e8                res_batmon_temp
 .data.res_bmp280_press
                0x000000002000080c       0x24 obj_srf06-cc26xx/res-sensors.o
                0x000000002000080c                res_bmp280_press
 .data.res_tmp007_obj
                0x0000000020000830       0x24 obj_srf06-cc26xx/res-sensors.o
                0x0000000020000830                res_tmp007_obj
 .data.res_batmon_volt
                0x0000000020000854       0x24 obj_srf06-cc26xx/res-sensors.o
                0x0000000020000854                res_batmon_volt
 .data.res_mpu_gyro_z
                0x0000000020000878       0x24 obj_srf06-cc26xx/res-sensors.o
                0x0000000020000878                res_mpu_gyro_z
 .data.res_mpu_acc_x
                0x000000002000089c       0x24 obj_srf06-cc26xx/res-sensors.o
                0x000000002000089c                res_mpu_acc_x
 .data.res_hdc1000_temp
                0x00000000200008c0       0x24 obj_srf06-cc26xx/res-sensors.o
                0x00000000200008c0                res_hdc1000_temp
 .data.res_mpu_acc_y
                0x00000000200008e4       0x24 obj_srf06-cc26xx/res-sensors.o
                0x00000000200008e4                res_mpu_acc_y
 .data.res_mpu_acc_z
                0x0000000020000908       0x24 obj_srf06-cc26xx/res-sensors.o
                0x0000000020000908                res_mpu_acc_z
 .data.res_mpu_gyro_x
                0x000000002000092c       0x24 obj_srf06-cc26xx/res-sensors.o
                0x000000002000092c                res_mpu_gyro_x
 .data.res_mpu_gyro_y
                0x0000000020000950       0x24 obj_srf06-cc26xx/res-sensors.o
                0x0000000020000950                res_mpu_gyro_y
 .data.res_hdc1000_hum
                0x0000000020000974       0x24 obj_srf06-cc26xx/res-sensors.o
                0x0000000020000974                res_hdc1000_hum
 .data.res_tmp007_amb
                0x0000000020000998       0x24 obj_srf06-cc26xx/res-sensors.o
                0x0000000020000998                res_tmp007_amb
 .data.res_opt3001_light
                0x00000000200009bc       0x24 obj_srf06-cc26xx/res-sensors.o
                0x00000000200009bc                res_opt3001_light
 .data.res_bmp280_temp
                0x00000000200009e0       0x24 obj_srf06-cc26xx/res-sensors.o
                0x00000000200009e0                res_bmp280_temp
 .data.forbidden_payload
                0x0000000020000a04        0x4 obj_srf06-cc26xx/res-ble-advd.o
                0x0000000020000a04                forbidden_payload
 .data.res_ble_advd
                0x0000000020000a08       0x24 obj_srf06-cc26xx/res-ble-advd.o
                0x0000000020000a08                res_ble_advd
 .data.res_parent_rssi
                0x0000000020000a2c       0x24 obj_srf06-cc26xx/res-net.o
                0x0000000020000a2c                res_parent_rssi
 .data.res_parent_ip
                0x0000000020000a50       0x24 obj_srf06-cc26xx/res-net.o
                0x0000000020000a50                res_parent_ip
 .data.cetic_6lbr_client_process
                0x0000000020000a74       0x10 obj_srf06-cc26xx/cetic-6lbr-client.o
                0x0000000020000a74                cetic_6lbr_client_process
 .data.coap_server_supported_msg
                0x0000000020000a84        0x4 obj_srf06-cc26xx/coap-server.o
                0x0000000020000a84                coap_server_supported_msg
 .data.coap_server_process
                0x0000000020000a88       0x10 obj_srf06-cc26xx/coap-server.o
                0x0000000020000a88                coap_server_process
 .data.coap_server_not_found_msg
                0x0000000020000a98        0x4 obj_srf06-cc26xx/coap-server.o
                0x0000000020000a98                coap_server_not_found_msg
 .data.net_uart_process
                0x0000000020000a9c       0x10 obj_srf06-cc26xx/net-uart.o
                0x0000000020000a9c                net_uart_process
 .data.remote_ipv6_handler
                0x0000000020000aac        0x8 obj_srf06-cc26xx/net-uart.o
                0x0000000020000aac                remote_ipv6_handler
 .data.on_off_handler
                0x0000000020000ab4        0x8 obj_srf06-cc26xx/net-uart.o
                0x0000000020000ab4                on_off_handler
 .data.remote_port_handler
                0x0000000020000abc        0x8 obj_srf06-cc26xx/net-uart.o
                0x0000000020000abc                remote_port_handler
 .data.org_id_handler
                0x0000000020000ac4        0x8 obj_srf06-cc26xx/mqtt-client.o
                0x0000000020000ac4                org_id_handler
 .data.type_id_handler
                0x0000000020000acc        0x8 obj_srf06-cc26xx/mqtt-client.o
                0x0000000020000acc                type_id_handler
 .data.cmd_type_handler
                0x0000000020000ad4        0x8 obj_srf06-cc26xx/mqtt-client.o
                0x0000000020000ad4                cmd_type_handler
 .data.mqtt_client_process
                0x0000000020000adc       0x10 obj_srf06-cc26xx/mqtt-client.o
                0x0000000020000adc                mqtt_client_process
 .data.port_handler
                0x0000000020000aec        0x8 obj_srf06-cc26xx/mqtt-client.o
                0x0000000020000aec                port_handler
 .data.interval_handler
                0x0000000020000af4        0x8 obj_srf06-cc26xx/mqtt-client.o
                0x0000000020000af4                interval_handler
 .data.event_type_id_handler
                0x0000000020000afc        0x8 obj_srf06-cc26xx/mqtt-client.o
                0x0000000020000afc                event_type_id_handler
 .data.auth_token_handler
                0x0000000020000b04        0x8 obj_srf06-cc26xx/mqtt-client.o
                0x0000000020000b04                auth_token_handler
 .data.reconnect_handler
                0x0000000020000b0c        0x8 obj_srf06-cc26xx/mqtt-client.o
                0x0000000020000b0c                reconnect_handler
 .data.ip_addr_handler
                0x0000000020000b14        0x8 obj_srf06-cc26xx/mqtt-client.o
                0x0000000020000b14                ip_addr_handler
 .data.http_header_con_close
                0x0000000020000b1c        0x8 obj_srf06-cc26xx/httpd-simple.o
 .data.httpd_simple_process
                0x0000000020000b24       0x10 obj_srf06-cc26xx/httpd-simple.o
                0x0000000020000b24                httpd_simple_process
 .data.http_net_cfg_page
                0x0000000020000b34       0x10 obj_srf06-cc26xx/httpd-simple.o
 .data.http_dev_cfg_page
                0x0000000020000b44       0x10 obj_srf06-cc26xx/httpd-simple.o
 .data.http_config_css
                0x0000000020000b54       0x1c obj_srf06-cc26xx/httpd-simple.o
 .data.http_header_srv_str
                0x0000000020000b70        0xc obj_srf06-cc26xx/httpd-simple.o
 .data.conns    0x0000000020000b7c        0xc obj_srf06-cc26xx/httpd-simple.o
 .data.http_index_page
                0x0000000020000b88       0x10 obj_srf06-cc26xx/httpd-simple.o
 .data.http_mqtt_cfg_page
                0x0000000020000b98       0x10 obj_srf06-cc26xx/httpd-simple.o
 .data.coap_engine
                0x0000000020000ba8       0x10 contiki-srf06-cc26xx.a(er-coap-engine.)
                0x0000000020000ba8                coap_engine
 .data.transactions_memb
                0x0000000020000bb8        0xc contiki-srf06-cc26xx.a(er-coap-transac)
 .data.observers_memb
                0x0000000020000bc4        0xc contiki-srf06-cc26xx.a(er-coap-observe)
 .data.res_well_known_core
                0x0000000020000bd0       0x24 contiki-srf06-cc26xx.a(er-coap-res-wel)
                0x0000000020000bd0                res_well_known_core
 .data.rest_engine_process
                0x0000000020000bf4       0x10 contiki-srf06-cc26xx.a(rest-engine.o)
                0x0000000020000bf4                rest_engine_process
 .data.mqtt_process
                0x0000000020000c04       0x10 contiki-srf06-cc26xx.a(mqtt.o)
                0x0000000020000c04                mqtt_process
 .data.sensors_process
                0x0000000020000c14       0x10 contiki-srf06-cc26xx.a(sensors.o)
                0x0000000020000c14                sensors_process
 .data.sensors  0x0000000020000c24       0x24 contiki-srf06-cc26xx.a(sensortag-senso)
                0x0000000020000c24                sensors
 .data.buzzer_module
                0x0000000020000c48       0x14 contiki-srf06-cc26xx.a(buzzer.o)
 .data.sensortag_module
                0x0000000020000c5c       0x14 contiki-srf06-cc26xx.a(board.o)
 .data.uart_module
                0x0000000020000c70       0x14 contiki-srf06-cc26xx.a(cc26xx-uart.o)
 .data.rf_ble_beacon_process
                0x0000000020000c84       0x10 contiki-srf06-cc26xx.a(rf-ble.o)
                0x0000000020000c84                rf_ble_beacon_process
 .data.beacond_config
                0x0000000020000c94       0x24 contiki-srf06-cc26xx.a(rf-ble.o)
 .data.ble_overrides
                0x0000000020000cb8       0x1c contiki-srf06-cc26xx.a(rf-ble.o)
 .data.tx_power_current
                0x0000000020000cd4        0x4 contiki-srf06-cc26xx.a(ieee-mode.o)
                0x0000000020000cd4                tx_power_current
 .data.cc26xx_rf_lpm_module
                0x0000000020000cd8       0x14 contiki-srf06-cc26xx.a(ieee-mode.o)
 .data.ieee_overrides
                0x0000000020000cec       0x2c contiki-srf06-cc26xx.a(ieee-mode.o)
 .data.rng_module
                0x0000000020000d18       0x14 contiki-srf06-cc26xx.a(soc-trng.o)
 .data.soc_trng_process
                0x0000000020000d2c       0x10 contiki-srf06-cc26xx.a(soc-trng.o)
                0x0000000020000d2c                soc_trng_process
 .data.ctxt     0x0000000020000d3c        0x8 contiki-srf06-cc26xx.a(dbg-printf.o)
 .data.etimer_process
                0x0000000020000d44       0x10 contiki-srf06-cc26xx.a(etimer.o)
                0x0000000020000d44                etimer_process
 .data.ctimer_process
                0x0000000020000d54       0x10 contiki-srf06-cc26xx.a(ctimer.o)
                0x0000000020000d54                ctimer_process
 .data.serial_line_process
                0x0000000020000d64       0x10 contiki-srf06-cc26xx.a(serial-line.o)
                0x0000000020000d64                serial_line_process
 .data.echo_request_handler
                0x0000000020000d74        0xc contiki-srf06-cc26xx.a(uip-icmp6.o)
 .data.echo_reply_handler
                0x0000000020000d80        0xc contiki-srf06-cc26xx.a(uip-icmp6.o)
 .data.defaultroutermemb
                0x0000000020000d8c        0xc contiki-srf06-cc26xx.a(uip-ds6-route.o)
 .data.nbr_routes_struct
                0x0000000020000d98       0x10 contiki-srf06-cc26xx.a(uip-ds6-route.o)
 .data.nbr_routes
                0x0000000020000da8        0x4 contiki-srf06-cc26xx.a(uip-ds6-route.o)
                0x0000000020000da8                nbr_routes
 .data.routememb
                0x0000000020000dac        0xc contiki-srf06-cc26xx.a(uip-ds6-route.o)
 .data.neighborroutememb
                0x0000000020000db8        0xc contiki-srf06-cc26xx.a(uip-ds6-route.o)
 .data.ds6_neighbors
                0x0000000020000dc4        0x4 contiki-srf06-cc26xx.a(uip-ds6-nbr.o)
                0x0000000020000dc4                ds6_neighbors
 .data.ds6_neighbors_struct
                0x0000000020000dc8       0x10 contiki-srf06-cc26xx.a(uip-ds6-nbr.o)
 .data.ns_input_handler
                0x0000000020000dd8        0xc contiki-srf06-cc26xx.a(uip-nd6.o)
 .data.tcp_socket_process
                0x0000000020000de4       0x10 contiki-srf06-cc26xx.a(tcp-socket.o)
                0x0000000020000de4                tcp_socket_process
 .data.tcpip_process
                0x0000000020000df4       0x10 contiki-srf06-cc26xx.a(tcpip.o)
                0x0000000020000df4                tcpip_process
 .data.rpl_parents
                0x0000000020000e04        0x4 contiki-srf06-cc26xx.a(rpl-dag.o)
                0x0000000020000e04                rpl_parents
 .data.rpl_parents_struct
                0x0000000020000e08       0x10 contiki-srf06-cc26xx.a(rpl-dag.o)
 .data.rpl_mrhof
                0x0000000020000e18       0x24 contiki-srf06-cc26xx.a(rpl-mrhof.o)
                0x0000000020000e18                rpl_mrhof
 .data.dao_ack_handler
                0x0000000020000e3c        0xc contiki-srf06-cc26xx.a(rpl-icmp6.o)
 .data.dis_handler
                0x0000000020000e48        0xc contiki-srf06-cc26xx.a(rpl-icmp6.o)
 .data.dao_handler
                0x0000000020000e54        0xc contiki-srf06-cc26xx.a(rpl-icmp6.o)
 .data.dio_handler
                0x0000000020000e60        0xc contiki-srf06-cc26xx.a(rpl-icmp6.o)
 .data.bufmem   0x0000000020000e6c        0xc contiki-srf06-cc26xx.a(queuebuf.o)
 .data.buframmem
                0x0000000020000e78        0xc contiki-srf06-cc26xx.a(queuebuf.o)
 .data.neighbor_addr_mem
                0x0000000020000e84        0xc contiki-srf06-cc26xx.a(nbr-table.o)
 .data.link_stats_struct
                0x0000000020000e90       0x10 contiki-srf06-cc26xx.a(link-stats.o)
 .data.packet_memb
                0x0000000020000ea0        0xc contiki-srf06-cc26xx.a(csma.o)
 .data.metadata_memb
                0x0000000020000eac        0xc contiki-srf06-cc26xx.a(csma.o)
 .data.neighbor_memb
                0x0000000020000eb8        0xc contiki-srf06-cc26xx.a(csma.o)
 .data.coap_error_message
                0x0000000020000ec4        0x4 contiki-srf06-cc26xx.a(er-coap.o)
                0x0000000020000ec4                coap_error_message
 .data.rf_core_process
                0x0000000020000ec8       0x10 contiki-srf06-cc26xx.a(rf-core.o)
                0x0000000020000ec8                rf_core_process
 .data          0x0000000020000ed8        0x4 /usr/lib/gcc/arm-none-eabi/5.4.1/../../../arm-none-eabi/lib/armv7-m/libc.a(lib_a-ctype_.o)
                0x0000000020000ed8                __ctype_ptr__
 .data.mac_pan_id
                0x0000000020000edc        0x2 contiki-srf06-cc26xx.a(frame802154.o)
 .data.interface
                0x0000000020000ede        0x1 contiki-srf06-cc26xx.a(board-i2c.o)
 .data.rng_ready_event
                0x0000000020000edf        0x1 contiki-srf06-cc26xx.a(soc-trng.o)
 .data.dao_sequence
                0x0000000020000ee0        0x1 contiki-srf06-cc26xx.a(rpl-icmp6.o)
 .data          0x0000000020000ee1        0x1 /usr/lib/gcc/arm-none-eabi/5.4.1/../../../arm-none-eabi/lib/armv7-m/libm.a(lib_a-s_lib_ver.o)
                0x0000000020000ee1                __fdlib_version
                0x0000000020000ee2                _edata = .

.igot.plt       0x0000000020000ee4        0x0 load address 0x000000000001d7ff
 .igot.plt      0x0000000020000ee4        0x0 obj_srf06-cc26xx/startup_gcc.o

.ARM.exidx      0x000000000001d800        0x8
 *(SORT(.ARM.exidx*))
 .ARM.exidx     0x000000000001d800        0x8 /usr/lib/gcc/arm-none-eabi/5.4.1/armv7-m/libgcc.a(_udivmoddi4.o)

.bss            0x0000000020000ee8     0x3f06
                0x0000000020000ee8                _bss = .
 *(SORT(.bss*))
 .bss.count     0x0000000020000ee8        0x8 contiki-srf06-cc26xx.a(clock.o)
 .bss.rands_cache
                0x0000000020000ef0       0x20 contiki-srf06-cc26xx.a(soc-trng.o)
 .bss.et        0x0000000020000f10       0x10 cc26xx-web-demo.co
 .bss.def_rt_rssi
                0x0000000020000f20        0x4 cc26xx-web-demo.co
                0x0000000020000f20                def_rt_rssi
 .bss.echo_reply_notification
                0x0000000020000f24        0x8 cc26xx-web-demo.co
 .bss.sensor_list_list
                0x0000000020000f2c        0x4 cc26xx-web-demo.co
 .bss.ct        0x0000000020000f30       0x20 cc26xx-web-demo.co
 .bss.echo_request_timer
                0x0000000020000f50       0x10 cc26xx-web-demo.co
 .bss.dest_addr
                0x0000000020000f60       0x10 obj_srf06-cc26xx/cetic-6lbr-client.o
 .bss.client_conn
                0x0000000020000f70        0x4 obj_srf06-cc26xx/cetic-6lbr-client.o
 .bss.seq_id.7691
                0x0000000020000f74        0x4 obj_srf06-cc26xx/cetic-6lbr-client.o
 .bss.et        0x0000000020000f78       0x10 obj_srf06-cc26xx/cetic-6lbr-client.o
 .bss.udp_conn  0x0000000020000f88        0x4 obj_srf06-cc26xx/net-uart.o
 .bss.remote_addr
                0x0000000020000f8c       0x10 obj_srf06-cc26xx/net-uart.o
 .bss.buffer    0x0000000020000f9c       0x64 obj_srf06-cc26xx/net-uart.o
 .bss.publish_periodic_timer
                0x0000000020001000       0x10 obj_srf06-cc26xx/mqtt-client.o
 .bss.reading   0x0000000020001010        0x4 obj_srf06-cc26xx/mqtt-client.o
 .bss.def_route
                0x0000000020001014       0x10 obj_srf06-cc26xx/mqtt-client.o
 .bss.connection_life
                0x0000000020001024        0x8 obj_srf06-cc26xx/mqtt-client.o
 .bss.sub_topic
                0x000000002000102c       0x40 obj_srf06-cc26xx/mqtt-client.o
 .bss.pub_topic
                0x000000002000106c       0x40 obj_srf06-cc26xx/mqtt-client.o
 .bss.client_id
                0x00000000200010ac       0x40 obj_srf06-cc26xx/mqtt-client.o
 .bss.ct        0x00000000200010ec       0x20 obj_srf06-cc26xx/mqtt-client.o
 .bss.app_buffer
                0x000000002000110c      0x200 obj_srf06-cc26xx/mqtt-client.o
 .bss.buf_ptr   0x000000002000130c        0x4 obj_srf06-cc26xx/mqtt-client.o
 .bss.conn      0x0000000020001310      0x760 obj_srf06-cc26xx/mqtt-client.o
 .bss.http_mqtt_a
                0x0000000020001a70       0x80 obj_srf06-cc26xx/httpd-simple.o
 .bss.val_escaped
                0x0000000020001af0       0x40 obj_srf06-cc26xx/httpd-simple.o
 .bss.state     0x0000000020001b30        0x4 obj_srf06-cc26xx/httpd-simple.o
 .bss.val_len   0x0000000020001b34        0x4 obj_srf06-cc26xx/httpd-simple.o
 .bss.lock      0x0000000020001b38        0x4 obj_srf06-cc26xx/httpd-simple.o
 .bss.val       0x0000000020001b3c       0x40 obj_srf06-cc26xx/httpd-simple.o
 .bss.pages_list_list
                0x0000000020001b7c        0x4 obj_srf06-cc26xx/httpd-simple.o
 .bss.conns_memb_count
                0x0000000020001b80        0x2 obj_srf06-cc26xx/httpd-simple.o
 *fill*         0x0000000020001b82        0x2 
 .bss.handler   0x0000000020001b84        0x4 obj_srf06-cc26xx/httpd-simple.o
 .bss.conns_memb_mem
                0x0000000020001b88      0x360 obj_srf06-cc26xx/httpd-simple.o
 .bss.html_escaped_buf
                0x0000000020001ee8       0x80 obj_srf06-cc26xx/httpd-simple.o
 .bss.post_handlers_list
                0x0000000020001f68        0x4 obj_srf06-cc26xx/httpd-simple.o
 .bss.key_len   0x0000000020001f6c        0x4 obj_srf06-cc26xx/httpd-simple.o
 .bss.key       0x0000000020001f70       0x40 obj_srf06-cc26xx/httpd-simple.o
 .bss.message.8436
                0x0000000020001fb0       0xa4 contiki-srf06-cc26xx.a(er-coap-engine.)
 .bss.transaction.8438
                0x0000000020002054        0x4 contiki-srf06-cc26xx.a(er-coap-engine.)
 .bss.response.8437
                0x0000000020002058       0xa4 contiki-srf06-cc26xx.a(er-coap-engine.)
 .bss.service_cbk
                0x00000000200020fc        0x4 contiki-srf06-cc26xx.a(er-coap-engine.)
 .bss.transactions_list_list
                0x0000000020002100        0x4 contiki-srf06-cc26xx.a(er-coap-transac)
 .bss.transaction_handler_process
                0x0000000020002104        0x4 contiki-srf06-cc26xx.a(er-coap-transac)
 .bss.transactions_memb_memb_count
                0x0000000020002108        0x4 contiki-srf06-cc26xx.a(er-coap-transac)
 .bss.transactions_memb_memb_mem
                0x000000002000210c      0x2e0 contiki-srf06-cc26xx.a(er-coap-transac)
 .bss.observers_memb_memb_mem
                0x00000000200023ec       0xf0 contiki-srf06-cc26xx.a(er-coap-observe)
 .bss.observers_memb_memb_count
                0x00000000200024dc        0x3 contiki-srf06-cc26xx.a(er-coap-observe)
 *fill*         0x00000000200024df        0x1 
 .bss.observers_list_list
                0x00000000200024e0        0x4 contiki-srf06-cc26xx.a(er-coap-observe)
 .bss.restful_periodic_services_list
                0x00000000200024e4        0x4 contiki-srf06-cc26xx.a(rest-engine.o)
 .bss.restful_services_list
                0x00000000200024e8        0x4 contiki-srf06-cc26xx.a(rest-engine.o)
 .bss.conn.8570
                0x00000000200024ec        0x4 contiki-srf06-cc26xx.a(mqtt.o)
 .bss.mqtt_conn_list_list
                0x00000000200024f0        0x4 contiki-srf06-cc26xx.a(mqtt.o)
 .bss.i.4895    0x00000000200024f4        0x4 contiki-srf06-cc26xx.a(sensors.o)
 .bss.events.4896
                0x00000000200024f8        0x4 contiki-srf06-cc26xx.a(sensors.o)
 .bss.inited    0x00000000200024fc        0x4 contiki-srf06-cc26xx.a(leds-arch.o)
 .bss.sensor_value
                0x0000000020002500        0x6 contiki-srf06-cc26xx.a(bmp-280-sensor.)
 *fill*         0x0000000020002506        0x2 
 .bss.calibration_data
                0x0000000020002508       0x1c contiki-srf06-cc26xx.a(bmp-280-sensor.)
 .bss.startup_timer
                0x0000000020002524       0x20 contiki-srf06-cc26xx.a(bmp-280-sensor.)
 .bss.enabled   0x0000000020002544        0x4 contiki-srf06-cc26xx.a(bmp-280-sensor.)
 .bss.obj_temp_latched
                0x0000000020002548        0x4 contiki-srf06-cc26xx.a(tmp-007-sensor.)
 .bss.startup_timer
                0x000000002000254c       0x20 contiki-srf06-cc26xx.a(tmp-007-sensor.)
 .bss.enabled   0x000000002000256c        0x4 contiki-srf06-cc26xx.a(tmp-007-sensor.)
 .bss.buf       0x0000000020002570        0x4 contiki-srf06-cc26xx.a(tmp-007-sensor.)
 .bss.amb_temp_latched
                0x0000000020002574        0x4 contiki-srf06-cc26xx.a(tmp-007-sensor.)
 .bss.startup_timer
                0x0000000020002578       0x20 contiki-srf06-cc26xx.a(opt-3001-sensor)
 .bss.state     0x0000000020002598        0x4 contiki-srf06-cc26xx.a(opt-3001-sensor)
 .bss.startup_timer
                0x000000002000259c       0x20 contiki-srf06-cc26xx.a(hdc-1000-sensor)
 .bss.enabled   0x00000000200025bc        0x4 contiki-srf06-cc26xx.a(hdc-1000-sensor)
 .bss.data      0x00000000200025c0        0x4 contiki-srf06-cc26xx.a(hdc-1000-sensor)
 .bss.sensor_value
                0x00000000200025c4        0x6 contiki-srf06-cc26xx.a(mpu-9250-sensor)
 *fill*         0x00000000200025ca        0x2 
 .bss.startup_timer
                0x00000000200025cc       0x20 contiki-srf06-cc26xx.a(mpu-9250-sensor)
 .bss.state     0x00000000200025ec        0x4 contiki-srf06-cc26xx.a(mpu-9250-sensor)
 .bss.elements  0x00000000200025f0        0x4 contiki-srf06-cc26xx.a(mpu-9250-sensor)
 .bss.left_timer
                0x00000000200025f4       0x10 contiki-srf06-cc26xx.a(button-sensor.o)
 .bss.debouncetimer
                0x0000000020002604        0x8 contiki-srf06-cc26xx.a(reed-relay.o)
 .bss.last_isr_time
                0x000000002000260c        0x4 contiki-srf06-cc26xx.a(soc-rtc.o)
 .bss.enabled   0x0000000020002610        0x4 contiki-srf06-cc26xx.a(batmon-sensor.o)
 .bss.input_handler
                0x0000000020002614        0x4 contiki-srf06-cc26xx.a(cc26xx-uart.o)
 .bss.modules_list_list
                0x0000000020002618        0x4 contiki-srf06-cc26xx.a(lpm.o)
 .bss.handlers  0x000000002000261c       0x80 contiki-srf06-cc26xx.a(gpio-interrupt.)
 .bss.i         0x000000002000269c        0x4 contiki-srf06-cc26xx.a(rf-ble.o)
 .bss.p         0x00000000200026a0        0x4 contiki-srf06-cc26xx.a(rf-ble.o)
 .bss.ble_params_buf
                0x00000000200026a4       0x20 contiki-srf06-cc26xx.a(rf-ble.o)
 .bss.ble_adv_et
                0x00000000200026c4       0x10 contiki-srf06-cc26xx.a(rf-ble.o)
 .bss.payload   0x00000000200026d4       0x40 contiki-srf06-cc26xx.a(rf-ble.o)
 .bss.rat_overflow_timer
                0x0000000020002714       0x20 contiki-srf06-cc26xx.a(ieee-mode.o)
 .bss.last_value.8726
                0x0000000020002734        0x4 contiki-srf06-cc26xx.a(ieee-mode.o)
 .bss.filter_cmd
                0x0000000020002738        0x8 contiki-srf06-cc26xx.a(ieee-mode.o)
 .bss.rx_data_queue
                0x0000000020002740        0x8 contiki-srf06-cc26xx.a(ieee-mode.o)
 .bss.rx_read_entry
                0x0000000020002748        0x4 contiki-srf06-cc26xx.a(ieee-mode.o)
 .bss.rat_overflow_counter
                0x000000002000274c        0x4 contiki-srf06-cc26xx.a(ieee-mode.o)
 .bss.cmd_ieee_rx_buf
                0x0000000020002750       0x80 contiki-srf06-cc26xx.a(ieee-mode.o)
 .bss.tx_buf    0x00000000200027d0       0xb6 contiki-srf06-cc26xx.a(ieee-mode.o)
 *fill*         0x0000000020002886        0x2 
 .bss.rf_stats  0x0000000020002888       0x10 contiki-srf06-cc26xx.a(ieee-mode.o)
 .bss.rx_buf_0  0x0000000020002898       0x90 contiki-srf06-cc26xx.a(ieee-mode.o)
 .bss.rx_buf_1  0x0000000020002928       0x90 contiki-srf06-cc26xx.a(ieee-mode.o)
 .bss.last_rat_overflow
                0x00000000200029b8        0x4 contiki-srf06-cc26xx.a(ieee-mode.o)
 .bss.rx_buf_3  0x00000000200029bc       0x90 contiki-srf06-cc26xx.a(ieee-mode.o)
 .bss.rx_buf_2  0x0000000020002a4c       0x90 contiki-srf06-cc26xx.a(ieee-mode.o)
 .bss.last_packet_timestamp
                0x0000000020002adc        0x4 contiki-srf06-cc26xx.a(ieee-mode.o)
 .bss.notify_cb
                0x0000000020002ae0        0x4 contiki-srf06-cc26xx.a(soc-trng.o)
 .bss.rands_mask
                0x0000000020002ae4        0x4 contiki-srf06-cc26xx.a(soc-trng.o)
 .bss.timerlist
                0x0000000020002ae8        0x4 contiki-srf06-cc26xx.a(etimer.o)
 .bss.next_expiration
                0x0000000020002aec        0x4 contiki-srf06-cc26xx.a(etimer.o)
 .bss.ctimer_list_list
                0x0000000020002af0        0x4 contiki-srf06-cc26xx.a(ctimer.o)
 .bss.process_current
                0x0000000020002af4        0x4 contiki-srf06-cc26xx.a(process.o)
                0x0000000020002af4                process_current
 .bss.process_list
                0x0000000020002af8        0x4 contiki-srf06-cc26xx.a(process.o)
                0x0000000020002af8                process_list
 .bss.events    0x0000000020002afc      0x180 contiki-srf06-cc26xx.a(process.o)
 .bss.next_rtimer
                0x0000000020002c7c        0x4 contiki-srf06-cc26xx.a(rtimer.o)
 .bss.rxbuf_data
                0x0000000020002c80       0x80 contiki-srf06-cc26xx.a(serial-line.o)
 .bss.ptr.4880  0x0000000020002d00        0x4 contiki-srf06-cc26xx.a(serial-line.o)
 .bss.rxbuf     0x0000000020002d04        0x8 contiki-srf06-cc26xx.a(serial-line.o)
 .bss.buf.4879  0x0000000020002d0c       0x80 contiki-srf06-cc26xx.a(serial-line.o)
 .bss.tmp_ipaddr
                0x0000000020002d8c       0x10 contiki-srf06-cc26xx.a(uip-icmp6.o)
 .bss.echo_reply_callback_list_list
                0x0000000020002d9c        0x4 contiki-srf06-cc26xx.a(uip-icmp6.o)
 .bss.input_handler_list_list
                0x0000000020002da0        0x4 contiki-srf06-cc26xx.a(uip-icmp6.o)
 .bss.locmaddr  0x0000000020002da4        0x4 contiki-srf06-cc26xx.a(uip-ds6.o)
 .bss.locprefix
                0x0000000020002da8        0x4 contiki-srf06-cc26xx.a(uip-ds6.o)
 .bss.locaddr   0x0000000020002dac        0x4 contiki-srf06-cc26xx.a(uip-ds6.o)
 .bss.loc_fipaddr
                0x0000000020002db0       0x10 contiki-srf06-cc26xx.a(uip-ds6.o)
 .bss.defaultroutermemb_memb_mem
                0x0000000020002dc0       0x40 contiki-srf06-cc26xx.a(uip-ds6-route.o)
 .bss.num_routes
                0x0000000020002e00        0x4 contiki-srf06-cc26xx.a(uip-ds6-route.o)
 .bss.defaultroutermemb_memb_count
                0x0000000020002e04        0x2 contiki-srf06-cc26xx.a(uip-ds6-route.o)
 *fill*         0x0000000020002e06        0x2 
 .bss.defaultrouterlist_list
                0x0000000020002e08        0x4 contiki-srf06-cc26xx.a(uip-ds6-route.o)
 .bss._nbr_routes_mem
                0x0000000020002e0c       0x28 contiki-srf06-cc26xx.a(uip-ds6-route.o)
 .bss.routelist_list
                0x0000000020002e34        0x4 contiki-srf06-cc26xx.a(uip-ds6-route.o)
 .bss.routememb_memb_mem
                0x0000000020002e38       0xc8 contiki-srf06-cc26xx.a(uip-ds6-route.o)
 .bss.neighborroutememb_memb_mem
                0x0000000020002f00       0x28 contiki-srf06-cc26xx.a(uip-ds6-route.o)
 .bss.notificationlist_list
                0x0000000020002f28        0x4 contiki-srf06-cc26xx.a(uip-ds6-route.o)
 .bss.neighborroutememb_memb_count
                0x0000000020002f2c        0x5 contiki-srf06-cc26xx.a(uip-ds6-route.o)
 *fill*         0x0000000020002f31        0x3 
 .bss.routememb_memb_count
                0x0000000020002f34        0x5 contiki-srf06-cc26xx.a(uip-ds6-route.o)
 *fill*         0x0000000020002f39        0x3 
 .bss.iss       0x0000000020002f3c        0x4 contiki-srf06-cc26xx.a(uip6.o)
 .bss._ds6_neighbors_mem
                0x0000000020002f40       0x5a contiki-srf06-cc26xx.a(uip-ds6-nbr.o)
 *fill*         0x0000000020002f9a        0x2 
 .bss.nbr       0x0000000020002f9c        0x4 contiki-srf06-cc26xx.a(uip-nd6.o)
 .bss.nd6_opt_llao
                0x0000000020002fa0        0x4 contiki-srf06-cc26xx.a(uip-nd6.o)
 .bss.addr      0x0000000020002fa4        0x4 contiki-srf06-cc26xx.a(uip-nd6.o)
 .bss.context   0x0000000020002fa8        0x4 contiki-srf06-cc26xx.a(sicslowpan.o)
 .bss.last_rssi
                0x0000000020002fac        0x4 contiki-srf06-cc26xx.a(sicslowpan.o)
 .bss.hc06_ptr  0x0000000020002fb0        0x4 contiki-srf06-cc26xx.a(sicslowpan.o)
 .bss.frag_info
                0x0000000020002fb4      0x170 contiki-srf06-cc26xx.a(sicslowpan.o)
 .bss.addr_contexts
                0x0000000020003124        0xa contiki-srf06-cc26xx.a(sicslowpan.o)
 *fill*         0x000000002000312e        0x2 
 .bss.packetbuf_ptr
                0x0000000020003130        0x4 contiki-srf06-cc26xx.a(sicslowpan.o)
 .bss.last_tx_status
                0x0000000020003134        0x4 contiki-srf06-cc26xx.a(sicslowpan.o)
 .bss.frag_buf  0x0000000020003138      0x54c contiki-srf06-cc26xx.a(sicslowpan.o)
 .bss.packetbuf_payload_len
                0x0000000020003684        0x4 contiki-srf06-cc26xx.a(sicslowpan.o)
 .bss.callback  0x0000000020003688        0x4 contiki-srf06-cc26xx.a(sicslowpan.o)
 .bss.socketlist_list
                0x000000002000368c        0x4 contiki-srf06-cc26xx.a(tcp-socket.o)
 .bss.s         0x0000000020003690       0xa4 contiki-srf06-cc26xx.a(tcpip.o)
 .bss.periodic  0x0000000020003734       0x10 contiki-srf06-cc26xx.a(tcpip.o)
 .bss.outputfunc
                0x0000000020003744        0x4 contiki-srf06-cc26xx.a(tcpip.o)
 .bss._rpl_parents_mem
                0x0000000020003748       0x28 contiki-srf06-cc26xx.a(rpl-dag.o)
 .bss.periodic_timer
                0x0000000020003770       0x20 contiki-srf06-cc26xx.a(rpl-timers.o)
 .bss.powerQualGlobals
                0x0000000020003790        0x8 contiki-srf06-cc26xx.a(sys_ctrl.o)
 .bss.buframmem_memb_count
                0x0000000020003798        0x8 contiki-srf06-cc26xx.a(queuebuf.o)
 .bss.bufmem_memb_mem
                0x00000000200037a0       0x20 contiki-srf06-cc26xx.a(queuebuf.o)
 .bss.buframmem_memb_mem
                0x00000000200037c0      0x580 contiki-srf06-cc26xx.a(queuebuf.o)
 .bss.bufmem_memb_count
                0x0000000020003d40        0x8 contiki-srf06-cc26xx.a(queuebuf.o)
 .bss.neighbor_addr_mem_memb_count
                0x0000000020003d48        0x5 contiki-srf06-cc26xx.a(nbr-table.o)
 *fill*         0x0000000020003d4d        0x3 
 .bss.locked_map
                0x0000000020003d50        0x5 contiki-srf06-cc26xx.a(nbr-table.o)
 *fill*         0x0000000020003d55        0x3 
 .bss.nbr_table_keys_list
                0x0000000020003d58        0x4 contiki-srf06-cc26xx.a(nbr-table.o)
 .bss.neighbor_addr_mem_memb_mem
                0x0000000020003d5c       0x3c contiki-srf06-cc26xx.a(nbr-table.o)
 .bss.used_map  0x0000000020003d98        0x5 contiki-srf06-cc26xx.a(nbr-table.o)
 *fill*         0x0000000020003d9d        0x3 
 .bss.all_tables
                0x0000000020003da0       0x20 contiki-srf06-cc26xx.a(nbr-table.o)
 .bss.num_tables
                0x0000000020003dc0        0x4 contiki-srf06-cc26xx.a(nbr-table.o)
 .bss.packetbuf_aligned
                0x0000000020003dc4       0x80 contiki-srf06-cc26xx.a(packetbuf.o)
 .bss._link_stats_mem
                0x0000000020003e44       0x3c contiki-srf06-cc26xx.a(link-stats.o)
 .bss.metadata_memb_memb_count
                0x0000000020003e80        0x8 contiki-srf06-cc26xx.a(csma.o)
 .bss.packet_memb_memb_count
                0x0000000020003e88        0x8 contiki-srf06-cc26xx.a(csma.o)
 .bss.packet_memb_memb_mem
                0x0000000020003e90       0x60 contiki-srf06-cc26xx.a(csma.o)
 .bss.metadata_memb_memb_mem
                0x0000000020003ef0       0x60 contiki-srf06-cc26xx.a(csma.o)
 .bss.neighbor_list_list
                0x0000000020003f50        0x4 contiki-srf06-cc26xx.a(csma.o)
 .bss.neighbor_memb_memb_count
                0x0000000020003f54        0x2 contiki-srf06-cc26xx.a(csma.o)
 *fill*         0x0000000020003f56        0x2 
 .bss.neighbor_memb_memb_mem
                0x0000000020003f58       0x70 contiki-srf06-cc26xx.a(csma.o)
 .bss.cycle_start
                0x0000000020003fc8        0x4 contiki-srf06-cc26xx.a(contikimac.o)
 .bss.we_are_receiving_burst
                0x0000000020003fcc        0x4 contiki-srf06-cc26xx.a(contikimac.o)
 .bss.rt        0x0000000020003fd0        0xc contiki-srf06-cc26xx.a(contikimac.o)
 .bss.ct.7016   0x0000000020003fdc       0x20 contiki-srf06-cc26xx.a(contikimac.o)
 .bss.start.6941
                0x0000000020003ffc        0x4 contiki-srf06-cc26xx.a(contikimac.o)
 .bss.pt        0x0000000020004000        0x2 contiki-srf06-cc26xx.a(contikimac.o)
 *fill*         0x0000000020004002        0x2 
 .bss.udp_conn  0x0000000020004004        0x4 contiki-srf06-cc26xx.a(er-coap.o)
 .bss.buffer    0x0000000020004008       0x20 contiki-srf06-cc26xx.a(sensor-common.o)
 .bss.consumers_list_list
                0x0000000020004028        0x4 contiki-srf06-cc26xx.a(aux-ctrl.o)
 .bss.last_radio_op
                0x000000002000402c        0x4 contiki-srf06-cc26xx.a(rf-core.o)
 .bss.primary_mode
                0x0000000020004030        0x4 contiki-srf06-cc26xx.a(rf-core.o)
 .bss.rat_offset
                0x0000000020004034        0x4 contiki-srf06-cc26xx.a(rf-core.o)
                0x0000000020004034                rat_offset
 .bss.periodic_timer
                0x0000000020004038       0x20 contiki-srf06-cc26xx.a(rpl-nbr-policy.)
 .bss.timer_init
                0x0000000020004058        0x4 contiki-srf06-cc26xx.a(rpl-nbr-policy.)
 .bss.num_children
                0x000000002000405c        0x4 contiki-srf06-cc26xx.a(rpl-nbr-policy.)
 .bss.worst_rank_nbr
                0x0000000020004060        0x4 contiki-srf06-cc26xx.a(rpl-nbr-policy.)
 .bss.num_parents
                0x0000000020004064        0x4 contiki-srf06-cc26xx.a(rpl-nbr-policy.)
 .bss.received_seqnos
                0x0000000020004068      0x100 contiki-srf06-cc26xx.a(mac-sequence.o)
 .bss.seq_nr_value
                0x0000000020004168        0x2 obj_srf06-cc26xx/mqtt-client.o
 .bss.numtimes  0x000000002000416a        0x2 obj_srf06-cc26xx/httpd-simple.o
 .bss.node_id   0x000000002000416c        0x2 contiki-srf06-cc26xx.a(contiki-main.o)
                0x000000002000416c                node_id
 .bss.val       0x000000002000416e        0x2 contiki-srf06-cc26xx.a(tmp-007-sensor.)
 .bss.raw_temp  0x0000000020004170        0x2 contiki-srf06-cc26xx.a(hdc-1000-sensor)
 .bss.raw_hum   0x0000000020004172        0x2 contiki-srf06-cc26xx.a(hdc-1000-sensor)
 .bss.lastport  0x0000000020004174        0x2 contiki-srf06-cc26xx.a(uip6.o)
 .bss.my_tag    0x0000000020004176        0x2 contiki-srf06-cc26xx.a(sicslowpan.o)
 .bss.next_dis  0x0000000020004178        0x2 contiki-srf06-cc26xx.a(rpl-timers.o)
 .bss.buflen    0x000000002000417a        0x2 contiki-srf06-cc26xx.a(packetbuf.o)
 .bss.bufptr    0x000000002000417c        0x2 contiki-srf06-cc26xx.a(packetbuf.o)
 .bss.seqno.6216
                0x000000002000417e        0x2 contiki-srf06-cc26xx.a(csma.o)
 .bss.current_mid
                0x0000000020004180        0x2 contiki-srf06-cc26xx.a(er-coap.o)
 .bss.worst_rank
                0x0000000020004182        0x2 contiki-srf06-cc26xx.a(rpl-nbr-policy.)
 .bss.state     0x0000000020004184        0x1 obj_srf06-cc26xx/mqtt-client.o
 .bss.connect_attempt
                0x0000000020004185        0x1 obj_srf06-cc26xx/mqtt-client.o
 .bss.config_ok
                0x0000000020004186        0x1 obj_srf06-cc26xx/httpd-simple.o
 .bss.initialized.5639
                0x0000000020004187        0x1 contiki-srf06-cc26xx.a(rest-engine.o)
 .bss.inited.8614
                0x0000000020004188        0x1 contiki-srf06-cc26xx.a(mqtt.o)
 .bss.mqtt_do_pingreq_event
                0x0000000020004189        0x1 contiki-srf06-cc26xx.a(mqtt.o)
 .bss.mqtt_event_min
                0x000000002000418a        0x1 contiki-srf06-cc26xx.a(mqtt.o)
 .bss.mqtt_event_max
                0x000000002000418b        0x1 contiki-srf06-cc26xx.a(mqtt.o)
 .bss.mqtt_do_connect_mqtt_event
                0x000000002000418c        0x1 contiki-srf06-cc26xx.a(mqtt.o)
 .bss.mqtt_do_publish_event
                0x000000002000418d        0x1 contiki-srf06-cc26xx.a(mqtt.o)
 .bss.mqtt_continue_send_event
                0x000000002000418e        0x1 contiki-srf06-cc26xx.a(mqtt.o)
 .bss.mqtt_do_disconnect_mqtt_event
                0x000000002000418f        0x1 contiki-srf06-cc26xx.a(mqtt.o)
 .bss.mqtt_abort_now_event
                0x0000000020004190        0x1 contiki-srf06-cc26xx.a(mqtt.o)
 .bss.mqtt_do_subscribe_event
                0x0000000020004191        0x1 contiki-srf06-cc26xx.a(mqtt.o)
 .bss.mqtt_do_unsubscribe_event
                0x0000000020004192        0x1 contiki-srf06-cc26xx.a(mqtt.o)
 .bss.mqtt_do_connect_tcp_event
                0x0000000020004193        0x1 contiki-srf06-cc26xx.a(mqtt.o)
 .bss.num_sensors
                0x0000000020004194        0x1 contiki-srf06-cc26xx.a(sensors.o)
 .bss.leds      0x0000000020004195        0x1 contiki-srf06-cc26xx.a(leds.o)
 .bss.c         0x0000000020004196        0x1 contiki-srf06-cc26xx.a(leds-arch.o)
 .bss.success   0x0000000020004197        0x1 contiki-srf06-cc26xx.a(hdc-1000-sensor)
 .bss.interrupt_status
                0x0000000020004198        0x1 contiki-srf06-cc26xx.a(mpu-9250-sensor)
 .bss.acc_range_reg
                0x0000000020004199        0x1 contiki-srf06-cc26xx.a(mpu-9250-sensor)
 .bss.mpu_config
                0x000000002000419a        0x1 contiki-srf06-cc26xx.a(mpu-9250-sensor)
 .bss.acc_range
                0x000000002000419b        0x1 contiki-srf06-cc26xx.a(mpu-9250-sensor)
 .bss.val       0x000000002000419c        0x1 contiki-srf06-cc26xx.a(mpu-9250-sensor)
 .bss.buzzer_on
                0x000000002000419d        0x1 contiki-srf06-cc26xx.a(buzzer.o)
 .bss.slave_addr
                0x000000002000419e        0x1 contiki-srf06-cc26xx.a(board-i2c.o)
 .bss.ble_mode_on
                0x000000002000419f        0x1 contiki-srf06-cc26xx.a(rf-ble.o)
 .bss.last_corr_lqi
                0x00000000200041a0        0x1 contiki-srf06-cc26xx.a(ieee-mode.o)
 .bss.last_rssi
                0x00000000200041a1        0x1 contiki-srf06-cc26xx.a(ieee-mode.o)
 .bss.poll_mode
                0x00000000200041a2        0x1 contiki-srf06-cc26xx.a(ieee-mode.o)
 .bss.initialized
                0x00000000200041a3        0x1 contiki-srf06-cc26xx.a(ctimer.o)
 .bss.fevent    0x00000000200041a4        0x1 contiki-srf06-cc26xx.a(process.o)
 .bss.nevents   0x00000000200041a5        0x1 contiki-srf06-cc26xx.a(process.o)
 .bss.poll_requested
                0x00000000200041a6        0x1 contiki-srf06-cc26xx.a(process.o)
 .bss.lastevent
                0x00000000200041a7        0x1 contiki-srf06-cc26xx.a(process.o)
 .bss.overflow.4873
                0x00000000200041a8        0x1 contiki-srf06-cc26xx.a(serial-line.o)
 .bss.uip_ext_len
                0x00000000200041a9        0x1 contiki-srf06-cc26xx.a(uip6.o)
                0x00000000200041a9                uip_ext_len
 .bss.uip_ext_bitmap
                0x00000000200041aa        0x1 contiki-srf06-cc26xx.a(uip6.o)
                0x00000000200041aa                uip_ext_bitmap
 .bss.uip_ext_opt_offset
                0x00000000200041ab        0x1 contiki-srf06-cc26xx.a(uip6.o)
                0x00000000200041ab                uip_ext_opt_offset
 .bss.nd6_opt_offset
                0x00000000200041ac        0x1 contiki-srf06-cc26xx.a(uip-nd6.o)
 .bss.uncomp_hdr_len
                0x00000000200041ad        0x1 contiki-srf06-cc26xx.a(sicslowpan.o)
 .bss.packetbuf_hdr_len
                0x00000000200041ae        0x1 contiki-srf06-cc26xx.a(sicslowpan.o)
 .bss.inited.7550
                0x00000000200041af        0x1 contiki-srf06-cc26xx.a(tcp-socket.o)
 .bss.dio_send_ok
                0x00000000200041b0        0x1 contiki-srf06-cc26xx.a(rpl-timers.o)
 .bss.mode      0x00000000200041b1        0x1 contiki-srf06-cc26xx.a(rpl.o)
 .bss.hdrlen    0x00000000200041b2        0x1 contiki-srf06-cc26xx.a(packetbuf.o)
 .bss.mac_dsn   0x00000000200041b3        0x1 contiki-srf06-cc26xx.a(framer-802154.o)
 .bss.initialized
                0x00000000200041b4        0x1 contiki-srf06-cc26xx.a(framer-802154.o)
 .bss.initialized.6215
                0x00000000200041b5        0x1 contiki-srf06-cc26xx.a(csma.o)
 .bss.periods.6943
                0x00000000200041b6        0x1 contiki-srf06-cc26xx.a(contikimac.o)
 .bss.silence_periods.6942
                0x00000000200041b7        0x1 contiki-srf06-cc26xx.a(contikimac.o)
 .bss.count.6936
                0x00000000200041b8        0x1 contiki-srf06-cc26xx.a(contikimac.o)
 .bss.radio_is_on
                0x00000000200041b9        0x1 contiki-srf06-cc26xx.a(contikimac.o)
 .bss.we_are_sending
                0x00000000200041ba        0x1 contiki-srf06-cc26xx.a(contikimac.o)
 .bss.contikimac_keep_radio_on
                0x00000000200041bb        0x1 contiki-srf06-cc26xx.a(contikimac.o)
 .bss.contikimac_is_on
                0x00000000200041bc        0x1 contiki-srf06-cc26xx.a(contikimac.o)
 .bss.packet_seen.6935
                0x00000000200041bd        0x1 contiki-srf06-cc26xx.a(contikimac.o)
 .bss.erbium_status_code
                0x00000000200041be        0x1 contiki-srf06-cc26xx.a(er-coap.o)
                0x00000000200041be                erbium_status_code
 .bss.rat_offset_known
                0x00000000200041bf        0x1 contiki-srf06-cc26xx.a(rf-core.o)
 *(SORT(COMMON))
 COMMON         0x00000000200041c0      0x1f0 cc26xx-web-demo.co
                0x00000000200041c0                cc26xx_web_demo_publish_event
                0x00000000200041c4                cc26xx_web_demo_config
                0x00000000200042e8                tmp_timer
                0x0000000020004308                opt_timer
                0x0000000020004328                cc26xx_web_demo_config_loaded_event
                0x000000002000432c                bmp_timer
                0x000000002000434c                batmon_timer
                0x000000002000436c                cc26xx_web_demo_load_config_defaults
                0x0000000020004370                mpu_timer
                0x0000000020004390                hdc_timer
 COMMON         0x00000000200043b0        0x4 obj_srf06-cc26xx/mqtt-client.o
                0x00000000200043b0                conf
 COMMON         0x00000000200043b4        0x9 contiki-srf06-cc26xx.a(sensortag-senso)
                0x00000000200043b4                sensors_flags
 *fill*         0x00000000200043bd        0x3 
 COMMON         0x00000000200043c0        0x4 contiki-srf06-cc26xx.a(mpu-9250-sensor)
                0x00000000200043c0                t0
 COMMON         0x00000000200043c4      0x174 contiki-srf06-cc26xx.a(uip-ds6.o)
                0x00000000200043c4                uip_ds6_timer_ra
                0x00000000200043cc                uip_ds6_if
                0x00000000200044c4                uip_ds6_netif_addr_list_offset
                0x00000000200044c5                uip_ds6_addr_size
                0x00000000200044c8                uip_ds6_prefix_list
                0x0000000020004528                uip_ds6_timer_periodic
 COMMON         0x0000000020004538      0x700 contiki-srf06-cc26xx.a(uip6.o)
                0x0000000020004538                uip_len
                0x000000002000453c                uip_sappdata
                0x0000000020004540                uip_acc32
                0x0000000020004544                uip_lladdr
                0x000000002000454c                uip_aligned_buf
                0x00000000200048d0                uip_flags
                0x00000000200048d4                uip_next_hdr
                0x00000000200048d8                uip_udp_conn
                0x00000000200048dc                uip_appdata
                0x00000000200048e0                uip_conn
                0x00000000200048e4                uip_conns
                0x0000000020004ac4                uip_icmp6_conns
                0x0000000020004acc                uip_listenports
                0x0000000020004af4                uip_slen
                0x0000000020004af8                uip_udp_conns
 COMMON         0x0000000020004c38      0x158 contiki-srf06-cc26xx.a(rpl-dag.o)
                0x0000000020004c38                default_instance
                0x0000000020004c3c                instance_table
 COMMON         0x0000000020004d90       0x2e contiki-srf06-cc26xx.a(packetbuf.o)
                0x0000000020004d90                packetbuf_addrs
                0x0000000020004da0                packetbuf_attrs
 *fill*         0x0000000020004dbe        0x2 
 COMMON         0x0000000020004dc0        0x8 contiki-srf06-cc26xx.a(linkaddr.o)
                0x0000000020004dc0                linkaddr_node_addr
 COMMON         0x0000000020004dc8       0x20 contiki-srf06-cc26xx.a(link-stats.o)
                0x0000000020004dc8                periodic_timer
 COMMON         0x0000000020004de8        0x1 obj_srf06-cc26xx/httpd-simple.o
                0x0000000020004de8                httpd_simple_event_new_config
 COMMON         0x0000000020004de9        0x1 contiki-srf06-cc26xx.a(mqtt.o)
                0x0000000020004de9                mqtt_update_event
 COMMON         0x0000000020004dea        0x1 contiki-srf06-cc26xx.a(sensors.o)
                0x0000000020004dea                sensors_event
 COMMON         0x0000000020004deb        0x1 contiki-srf06-cc26xx.a(serial-line.o)
                0x0000000020004deb                serial_line_event_message
 COMMON         0x0000000020004dec        0x2 contiki-srf06-cc26xx.a(tcpip.o)
                0x0000000020004dec                tcpip_event
                0x0000000020004ded                tcpip_icmp6_event
                0x0000000020004dee                _ebss = .

.ccfg           0x000000000001ffa8       0x58
 *(SORT(.ccfg))
 .ccfg          0x000000000001ffa8       0x58 obj_srf06-cc26xx/ccfg.o
                0x000000000001ffa8                __ccfg

.rel.dyn        0x0000000000020000        0x0
 .rel.iplt      0x0000000000020000        0x0 obj_srf06-cc26xx/startup_gcc.o

._user_heap_stack
                0x0000000020004dee      0x102
                0x0000000020004df0                . = ALIGN (0x4)
 *fill*         0x0000000020004dee        0x2 
                0x0000000020004df0                . = (. + _Min_Heap_Size)
                0x0000000020004ef0                . = (. + _Min_Stack_Size)
 *fill*         0x0000000020004df0      0x100 
                0x0000000020004ef0                . = ALIGN (0x4)

.gpram
OUTPUT(cc26xx-web-demo.elf elf32-littlearm)

.comment        0x0000000000000000       0x2b
 .comment       0x0000000000000000       0x2b obj_srf06-cc26xx/fault-handlers.o
                                         0x2c (size before relaxing)
 .comment       0x000000000000002b       0x2c obj_srf06-cc26xx/ccfg.o
 .comment       0x000000000000002b       0x2c obj_srf06-cc26xx/startup_gcc.o
 .comment       0x000000000000002b       0x2c cc26xx-web-demo.co
 .comment       0x000000000000002b       0x2c obj_srf06-cc26xx/res-leds.o
 .comment       0x000000000000002b       0x2c obj_srf06-cc26xx/res-toggle-leds.o
 .comment       0x000000000000002b       0x2c obj_srf06-cc26xx/res-device.o
 .comment       0x000000000000002b       0x2c obj_srf06-cc26xx/res-sensors.o
 .comment       0x000000000000002b       0x2c obj_srf06-cc26xx/res-ble-advd.o
 .comment       0x000000000000002b       0x2c obj_srf06-cc26xx/res-net.o
 .comment       0x000000000000002b       0x2c obj_srf06-cc26xx/cetic-6lbr-client.o
 .comment       0x000000000000002b       0x2c obj_srf06-cc26xx/coap-server.o
 .comment       0x000000000000002b       0x2c obj_srf06-cc26xx/net-uart.o
 .comment       0x000000000000002b       0x2c obj_srf06-cc26xx/mqtt-client.o
 .comment       0x000000000000002b       0x2c obj_srf06-cc26xx/httpd-simple.o
 .comment       0x000000000000002b       0x2c contiki-srf06-cc26xx.a(er-coap-engine.)
 .comment       0x000000000000002b       0x2c contiki-srf06-cc26xx.a(er-coap-transac)
 .comment       0x000000000000002b       0x2c contiki-srf06-cc26xx.a(er-coap-observe)
 .comment       0x000000000000002b       0x2c contiki-srf06-cc26xx.a(er-coap-res-wel)
 .comment       0x000000000000002b       0x2c contiki-srf06-cc26xx.a(rest-engine.o)
 .comment       0x000000000000002b       0x2c contiki-srf06-cc26xx.a(mqtt.o)
 .comment       0x000000000000002b       0x2c contiki-srf06-cc26xx.a(contiki-main.o)
 .comment       0x000000000000002b       0x2c contiki-srf06-cc26xx.a(sensors.o)
 .comment       0x000000000000002b       0x2c contiki-srf06-cc26xx.a(leds.o)
 .comment       0x000000000000002b       0x2c contiki-srf06-cc26xx.a(leds-arch.o)
 .comment       0x000000000000002b       0x2c contiki-srf06-cc26xx.a(sensortag-senso)
 .comment       0x000000000000002b       0x2c contiki-srf06-cc26xx.a(bmp-280-sensor.)
 .comment       0x000000000000002b       0x2c contiki-srf06-cc26xx.a(tmp-007-sensor.)
 .comment       0x000000000000002b       0x2c contiki-srf06-cc26xx.a(opt-3001-sensor)
 .comment       0x000000000000002b       0x2c contiki-srf06-cc26xx.a(hdc-1000-sensor)
 .comment       0x000000000000002b       0x2c contiki-srf06-cc26xx.a(mpu-9250-sensor)
 .comment       0x000000000000002b       0x2c contiki-srf06-cc26xx.a(button-sensor.o)
 .comment       0x000000000000002b       0x2c contiki-srf06-cc26xx.a(reed-relay.o)
 .comment       0x000000000000002b       0x2c contiki-srf06-cc26xx.a(ext-flash.o)
 .comment       0x000000000000002b       0x2c contiki-srf06-cc26xx.a(buzzer.o)
 .comment       0x000000000000002b       0x2c contiki-srf06-cc26xx.a(board.o)
 .comment       0x000000000000002b       0x2c contiki-srf06-cc26xx.a(board-spi.o)
 .comment       0x000000000000002b       0x2c contiki-srf06-cc26xx.a(board-i2c.o)
 .comment       0x000000000000002b       0x2c contiki-srf06-cc26xx.a(clock.o)
 .comment       0x000000000000002b       0x2c contiki-srf06-cc26xx.a(rtimer-arch.o)
 .comment       0x000000000000002b       0x2c contiki-srf06-cc26xx.a(soc-rtc.o)
 .comment       0x000000000000002b       0x2c contiki-srf06-cc26xx.a(contiki-watchdo)
 .comment       0x000000000000002b       0x2c contiki-srf06-cc26xx.a(putchar.o)
 .comment       0x000000000000002b       0x2c contiki-srf06-cc26xx.a(ieee-addr.o)
 .comment       0x000000000000002b       0x2c contiki-srf06-cc26xx.a(batmon-sensor.o)
 .comment       0x000000000000002b       0x2c contiki-srf06-cc26xx.a(cc26xx-uart.o)
 .comment       0x000000000000002b       0x2c contiki-srf06-cc26xx.a(lpm.o)
 .comment       0x000000000000002b       0x2c contiki-srf06-cc26xx.a(gpio-interrupt.)
 .comment       0x000000000000002b       0x2c contiki-srf06-cc26xx.a(oscillators.o)
 .comment       0x000000000000002b       0x2c contiki-srf06-cc26xx.a(rf-ble.o)
 .comment       0x000000000000002b       0x2c contiki-srf06-cc26xx.a(ieee-mode.o)
 .comment       0x000000000000002b       0x2c contiki-srf06-cc26xx.a(random.o)
 .comment       0x000000000000002b       0x2c contiki-srf06-cc26xx.a(soc-trng.o)
 .comment       0x000000000000002b       0x2c contiki-srf06-cc26xx.a(dbg-printf.o)
 .comment       0x000000000000002b       0x2c contiki-srf06-cc26xx.a(dbg-snprintf.o)
 .comment       0x000000000000002b       0x2c contiki-srf06-cc26xx.a(dbg-sprintf.o)
 .comment       0x000000000000002b       0x2c contiki-srf06-cc26xx.a(strformat.o)
 .comment       0x000000000000002b       0x2c contiki-srf06-cc26xx.a(autostart.o)
 .comment       0x000000000000002b       0x2c contiki-srf06-cc26xx.a(energest.o)
 .comment       0x000000000000002b       0x2c contiki-srf06-cc26xx.a(etimer.o)
 .comment       0x000000000000002b       0x2c contiki-srf06-cc26xx.a(ctimer.o)
 .comment       0x000000000000002b       0x2c contiki-srf06-cc26xx.a(process.o)
 .comment       0x000000000000002b       0x2c contiki-srf06-cc26xx.a(rtimer.o)
 .comment       0x000000000000002b       0x2c contiki-srf06-cc26xx.a(timer.o)
 .comment       0x000000000000002b       0x2c contiki-srf06-cc26xx.a(serial-line.o)
 .comment       0x000000000000002b       0x2c contiki-srf06-cc26xx.a(ringbuf.o)
 .comment       0x000000000000002b       0x2c contiki-srf06-cc26xx.a(list.o)
 .comment       0x000000000000002b       0x2c contiki-srf06-cc26xx.a(memb.o)
 .comment       0x000000000000002b       0x2c contiki-srf06-cc26xx.a(uip-icmp6.o)
 .comment       0x000000000000002b       0x2c contiki-srf06-cc26xx.a(uip-ds6.o)
 .comment       0x000000000000002b       0x2c contiki-srf06-cc26xx.a(uip-ds6-route.o)
 .comment       0x000000000000002b       0x2c contiki-srf06-cc26xx.a(uip6.o)
 .comment       0x000000000000002b       0x2c contiki-srf06-cc26xx.a(uip-ds6-nbr.o)
 .comment       0x000000000000002b       0x2c contiki-srf06-cc26xx.a(uip-nd6.o)
 .comment       0x000000000000002b       0x2c contiki-srf06-cc26xx.a(sicslowpan.o)
 .comment       0x000000000000002b       0x2c contiki-srf06-cc26xx.a(uip-debug.o)
 .comment       0x000000000000002b       0x2c contiki-srf06-cc26xx.a(tcp-socket.o)
 .comment       0x000000000000002b       0x2c contiki-srf06-cc26xx.a(uiplib.o)
 .comment       0x000000000000002b       0x2c contiki-srf06-cc26xx.a(uip-udp-packet.)
 .comment       0x000000000000002b       0x2c contiki-srf06-cc26xx.a(psock.o)
 .comment       0x000000000000002b       0x2c contiki-srf06-cc26xx.a(tcpip.o)
 .comment       0x000000000000002b       0x2c contiki-srf06-cc26xx.a(rpl-dag.o)
 .comment       0x000000000000002b       0x2c contiki-srf06-cc26xx.a(rpl-timers.o)
 .comment       0x000000000000002b       0x2c contiki-srf06-cc26xx.a(rpl-ext-header.)
 .comment       0x000000000000002b       0x2c contiki-srf06-cc26xx.a(rpl.o)
 .comment       0x000000000000002b       0x2c contiki-srf06-cc26xx.a(rpl-mrhof.o)
 .comment       0x000000000000002b       0x2c contiki-srf06-cc26xx.a(rpl-icmp6.o)
 .comment       0x000000000000002b       0x2c contiki-srf06-cc26xx.a(setup.o)
 .comment       0x000000000000002b       0x2c contiki-srf06-cc26xx.a(aon_batmon.o)
 .comment       0x000000000000002b       0x2c contiki-srf06-cc26xx.a(osc.o)
 .comment       0x000000000000002b       0x2c contiki-srf06-cc26xx.a(ddi.o)
 .comment       0x000000000000002b       0x2c contiki-srf06-cc26xx.a(sys_ctrl.o)
 .comment       0x000000000000002b       0x2c contiki-srf06-cc26xx.a(adi.o)
 .comment       0x000000000000002b       0x2c contiki-srf06-cc26xx.a(pwr_ctrl.o)
 .comment       0x000000000000002b       0x2c contiki-srf06-cc26xx.a(trng.o)
 .comment       0x000000000000002b       0x2c contiki-srf06-cc26xx.a(cpu.o)
 .comment       0x000000000000002b       0x2c contiki-srf06-cc26xx.a(aon_rtc.o)
 .comment       0x000000000000002b       0x2c contiki-srf06-cc26xx.a(chipinfo.o)
 .comment       0x000000000000002b       0x2c contiki-srf06-cc26xx.a(queuebuf.o)
 .comment       0x000000000000002b       0x2c contiki-srf06-cc26xx.a(nbr-table.o)
 .comment       0x000000000000002b       0x2c contiki-srf06-cc26xx.a(packetbuf.o)
 .comment       0x000000000000002b       0x2c contiki-srf06-cc26xx.a(netstack.o)
 .comment       0x000000000000002b       0x2c contiki-srf06-cc26xx.a(linkaddr.o)
 .comment       0x000000000000002b       0x2c contiki-srf06-cc26xx.a(link-stats.o)
 .comment       0x000000000000002b       0x2c contiki-srf06-cc26xx.a(framer-802154.o)
 .comment       0x000000000000002b       0x2c contiki-srf06-cc26xx.a(frame802154.o)
 .comment       0x000000000000002b       0x2c contiki-srf06-cc26xx.a(csma.o)
 .comment       0x000000000000002b       0x2c contiki-srf06-cc26xx.a(contikimac.o)
 .comment       0x000000000000002b       0x2c contiki-srf06-cc26xx.a(nullsec.o)
 .comment       0x000000000000002b       0x2c contiki-srf06-cc26xx.a(er-coap.o)
 .comment       0x000000000000002b       0x2c contiki-srf06-cc26xx.a(sensor-common.o)
 .comment       0x000000000000002b       0x2c contiki-srf06-cc26xx.a(aux-ctrl.o)
 .comment       0x000000000000002b       0x2c contiki-srf06-cc26xx.a(rf-core.o)
 .comment       0x000000000000002b       0x2c contiki-srf06-cc26xx.a(stimer.o)
 .comment       0x000000000000002b       0x2c contiki-srf06-cc26xx.a(rpl-nbr-policy.)
 .comment       0x000000000000002b       0x2c contiki-srf06-cc26xx.a(setup_rom.o)
 .comment       0x000000000000002b       0x2c contiki-srf06-cc26xx.a(mac-sequence.o)
 .comment       0x000000000000002b       0x2c contiki-srf06-cc26xx.a(mac.o)
 .comment       0x000000000000002b       0x2c /usr/lib/gcc/arm-none-eabi/5.4.1/../../../arm-none-eabi/lib/armv7-m/libm.a(lib_a-w_exp2.o)
 .comment       0x000000000000002b       0x2c /usr/lib/gcc/arm-none-eabi/5.4.1/../../../arm-none-eabi/lib/armv7-m/libm.a(lib_a-w_pow.o)
 .comment       0x000000000000002b       0x2c /usr/lib/gcc/arm-none-eabi/5.4.1/../../../arm-none-eabi/lib/armv7-m/libm.a(lib_a-e_pow.o)
 .comment       0x000000000000002b       0x2c /usr/lib/gcc/arm-none-eabi/5.4.1/../../../arm-none-eabi/lib/armv7-m/libm.a(lib_a-e_sqrt.o)
 .comment       0x000000000000002b       0x2c /usr/lib/gcc/arm-none-eabi/5.4.1/../../../arm-none-eabi/lib/armv7-m/libm.a(lib_a-s_fabs.o)
 .comment       0x000000000000002b       0x2c /usr/lib/gcc/arm-none-eabi/5.4.1/../../../arm-none-eabi/lib/armv7-m/libm.a(lib_a-s_finite.o)
 .comment       0x000000000000002b       0x2c /usr/lib/gcc/arm-none-eabi/5.4.1/../../../arm-none-eabi/lib/armv7-m/libm.a(lib_a-s_lib_ver.o)
 .comment       0x000000000000002b       0x2c /usr/lib/gcc/arm-none-eabi/5.4.1/../../../arm-none-eabi/lib/armv7-m/libm.a(lib_a-s_matherr.o)
 .comment       0x000000000000002b       0x2c /usr/lib/gcc/arm-none-eabi/5.4.1/../../../arm-none-eabi/lib/armv7-m/libm.a(lib_a-s_nan.o)
 .comment       0x000000000000002b       0x2c /usr/lib/gcc/arm-none-eabi/5.4.1/../../../arm-none-eabi/lib/armv7-m/libm.a(lib_a-s_rint.o)
 .comment       0x000000000000002b       0x2c /usr/lib/gcc/arm-none-eabi/5.4.1/../../../arm-none-eabi/lib/armv7-m/libm.a(lib_a-s_scalbn.o)
 .comment       0x000000000000002b       0x2c /usr/lib/gcc/arm-none-eabi/5.4.1/../../../arm-none-eabi/lib/armv7-m/libm.a(lib_a-s_copysign.o)
 .comment       0x000000000000002b       0x2c /usr/lib/gcc/arm-none-eabi/5.4.1/armv7-m/libgcc.a(_udivmoddi4.o)
 .comment       0x000000000000002b       0x2c /usr/lib/gcc/arm-none-eabi/5.4.1/../../../arm-none-eabi/lib/armv7-m/libc.a(lib_a-atoi.o)
 .comment       0x000000000000002b       0x2c /usr/lib/gcc/arm-none-eabi/5.4.1/../../../arm-none-eabi/lib/armv7-m/libc.a(lib_a-ctype_.o)
 .comment       0x000000000000002b       0x2c /usr/lib/gcc/arm-none-eabi/5.4.1/../../../arm-none-eabi/lib/armv7-m/libc.a(lib_a-errno.o)
 .comment       0x000000000000002b       0x2c /usr/lib/gcc/arm-none-eabi/5.4.1/../../../arm-none-eabi/lib/armv7-m/libc.a(lib_a-impure.o)
 .comment       0x000000000000002b       0x2c /usr/lib/gcc/arm-none-eabi/5.4.1/../../../arm-none-eabi/lib/armv7-m/libc.a(lib_a-memchr-stub.o)
 .comment       0x000000000000002b       0x2c /usr/lib/gcc/arm-none-eabi/5.4.1/../../../arm-none-eabi/lib/armv7-m/libc.a(lib_a-memcmp.o)
 .comment       0x000000000000002b       0x2c /usr/lib/gcc/arm-none-eabi/5.4.1/../../../arm-none-eabi/lib/armv7-m/libc.a(lib_a-memmove.o)
 .comment       0x000000000000002b       0x2c /usr/lib/gcc/arm-none-eabi/5.4.1/../../../arm-none-eabi/lib/armv7-m/libc.a(lib_a-memset.o)
 .comment       0x000000000000002b       0x2c /usr/lib/gcc/arm-none-eabi/5.4.1/../../../arm-none-eabi/lib/armv7-m/libc.a(lib_a-strchr.o)
 .comment       0x000000000000002b       0x2c /usr/lib/gcc/arm-none-eabi/5.4.1/../../../arm-none-eabi/lib/armv7-m/libc.a(lib_a-strlen-stub.o)
 .comment       0x000000000000002b       0x2c /usr/lib/gcc/arm-none-eabi/5.4.1/../../../arm-none-eabi/lib/armv7-m/libc.a(lib_a-strncasecmp.o)
 .comment       0x000000000000002b       0x2c /usr/lib/gcc/arm-none-eabi/5.4.1/../../../arm-none-eabi/lib/armv7-m/libc.a(lib_a-strncmp.o)
 .comment       0x000000000000002b       0x2c /usr/lib/gcc/arm-none-eabi/5.4.1/../../../arm-none-eabi/lib/armv7-m/libc.a(lib_a-strncpy.o)
 .comment       0x000000000000002b       0x2c /usr/lib/gcc/arm-none-eabi/5.4.1/../../../arm-none-eabi/lib/armv7-m/libc.a(lib_a-strtol.o)

.ARM.attributes
                0x0000000000000000       0x31
 .ARM.attributes
                0x0000000000000000       0x33 obj_srf06-cc26xx/fault-handlers.o
 .ARM.attributes
                0x0000000000000033       0x33 obj_srf06-cc26xx/ccfg.o
 .ARM.attributes
                0x0000000000000066       0x33 obj_srf06-cc26xx/startup_gcc.o
 .ARM.attributes
                0x0000000000000099       0x33 cc26xx-web-demo.co
 .ARM.attributes
                0x00000000000000cc       0x33 obj_srf06-cc26xx/res-leds.o
 .ARM.attributes
                0x00000000000000ff       0x33 obj_srf06-cc26xx/res-toggle-leds.o
 .ARM.attributes
                0x0000000000000132       0x33 obj_srf06-cc26xx/res-device.o
 .ARM.attributes
                0x0000000000000165       0x33 obj_srf06-cc26xx/res-sensors.o
 .ARM.attributes
                0x0000000000000198       0x33 obj_srf06-cc26xx/res-ble-advd.o
 .ARM.attributes
                0x00000000000001cb       0x33 obj_srf06-cc26xx/res-net.o
 .ARM.attributes
                0x00000000000001fe       0x33 obj_srf06-cc26xx/cetic-6lbr-client.o
 .ARM.attributes
                0x0000000000000231       0x33 obj_srf06-cc26xx/coap-server.o
 .ARM.attributes
                0x0000000000000264       0x33 obj_srf06-cc26xx/net-uart.o
 .ARM.attributes
                0x0000000000000297       0x33 obj_srf06-cc26xx/mqtt-client.o
 .ARM.attributes
                0x00000000000002ca       0x33 obj_srf06-cc26xx/httpd-simple.o
 .ARM.attributes
                0x00000000000002fd       0x33 contiki-srf06-cc26xx.a(er-coap-engine.)
 .ARM.attributes
                0x0000000000000330       0x33 contiki-srf06-cc26xx.a(er-coap-transac)
 .ARM.attributes
                0x0000000000000363       0x33 contiki-srf06-cc26xx.a(er-coap-observe)
 .ARM.attributes
                0x0000000000000396       0x33 contiki-srf06-cc26xx.a(er-coap-res-wel)
 .ARM.attributes
                0x00000000000003c9       0x33 contiki-srf06-cc26xx.a(rest-engine.o)
 .ARM.attributes
                0x00000000000003fc       0x33 contiki-srf06-cc26xx.a(mqtt.o)
 .ARM.attributes
                0x000000000000042f       0x33 contiki-srf06-cc26xx.a(contiki-main.o)
 .ARM.attributes
                0x0000000000000462       0x33 contiki-srf06-cc26xx.a(sensors.o)
 .ARM.attributes
                0x0000000000000495       0x33 contiki-srf06-cc26xx.a(leds.o)
 .ARM.attributes
                0x00000000000004c8       0x33 contiki-srf06-cc26xx.a(leds-arch.o)
 .ARM.attributes
                0x00000000000004fb       0x33 contiki-srf06-cc26xx.a(sensortag-senso)
 .ARM.attributes
                0x000000000000052e       0x33 contiki-srf06-cc26xx.a(bmp-280-sensor.)
 .ARM.attributes
                0x0000000000000561       0x33 contiki-srf06-cc26xx.a(tmp-007-sensor.)
 .ARM.attributes
                0x0000000000000594       0x33 contiki-srf06-cc26xx.a(opt-3001-sensor)
 .ARM.attributes
                0x00000000000005c7       0x33 contiki-srf06-cc26xx.a(hdc-1000-sensor)
 .ARM.attributes
                0x00000000000005fa       0x33 contiki-srf06-cc26xx.a(mpu-9250-sensor)
 .ARM.attributes
                0x000000000000062d       0x33 contiki-srf06-cc26xx.a(button-sensor.o)
 .ARM.attributes
                0x0000000000000660       0x33 contiki-srf06-cc26xx.a(reed-relay.o)
 .ARM.attributes
                0x0000000000000693       0x33 contiki-srf06-cc26xx.a(ext-flash.o)
 .ARM.attributes
                0x00000000000006c6       0x33 contiki-srf06-cc26xx.a(buzzer.o)
 .ARM.attributes
                0x00000000000006f9       0x33 contiki-srf06-cc26xx.a(board.o)
 .ARM.attributes
                0x000000000000072c       0x33 contiki-srf06-cc26xx.a(board-spi.o)
 .ARM.attributes
                0x000000000000075f       0x33 contiki-srf06-cc26xx.a(board-i2c.o)
 .ARM.attributes
                0x0000000000000792       0x33 contiki-srf06-cc26xx.a(clock.o)
 .ARM.attributes
                0x00000000000007c5       0x33 contiki-srf06-cc26xx.a(rtimer-arch.o)
 .ARM.attributes
                0x00000000000007f8       0x33 contiki-srf06-cc26xx.a(soc-rtc.o)
 .ARM.attributes
                0x000000000000082b       0x33 contiki-srf06-cc26xx.a(contiki-watchdo)
 .ARM.attributes
                0x000000000000085e       0x33 contiki-srf06-cc26xx.a(putchar.o)
 .ARM.attributes
                0x0000000000000891       0x33 contiki-srf06-cc26xx.a(ieee-addr.o)
 .ARM.attributes
                0x00000000000008c4       0x33 contiki-srf06-cc26xx.a(batmon-sensor.o)
 .ARM.attributes
                0x00000000000008f7       0x33 contiki-srf06-cc26xx.a(cc26xx-uart.o)
 .ARM.attributes
                0x000000000000092a       0x33 contiki-srf06-cc26xx.a(lpm.o)
 .ARM.attributes
                0x000000000000095d       0x33 contiki-srf06-cc26xx.a(gpio-interrupt.)
 .ARM.attributes
                0x0000000000000990       0x33 contiki-srf06-cc26xx.a(oscillators.o)
 .ARM.attributes
                0x00000000000009c3       0x33 contiki-srf06-cc26xx.a(rf-ble.o)
 .ARM.attributes
                0x00000000000009f6       0x33 contiki-srf06-cc26xx.a(ieee-mode.o)
 .ARM.attributes
                0x0000000000000a29       0x33 contiki-srf06-cc26xx.a(random.o)
 .ARM.attributes
                0x0000000000000a5c       0x33 contiki-srf06-cc26xx.a(soc-trng.o)
 .ARM.attributes
                0x0000000000000a8f       0x33 contiki-srf06-cc26xx.a(dbg-printf.o)
 .ARM.attributes
                0x0000000000000ac2       0x33 contiki-srf06-cc26xx.a(dbg-snprintf.o)
 .ARM.attributes
                0x0000000000000af5       0x33 contiki-srf06-cc26xx.a(dbg-sprintf.o)
 .ARM.attributes
                0x0000000000000b28       0x33 contiki-srf06-cc26xx.a(strformat.o)
 .ARM.attributes
                0x0000000000000b5b       0x33 contiki-srf06-cc26xx.a(autostart.o)
 .ARM.attributes
                0x0000000000000b8e       0x33 contiki-srf06-cc26xx.a(energest.o)
 .ARM.attributes
                0x0000000000000bc1       0x33 contiki-srf06-cc26xx.a(etimer.o)
 .ARM.attributes
                0x0000000000000bf4       0x33 contiki-srf06-cc26xx.a(ctimer.o)
 .ARM.attributes
                0x0000000000000c27       0x33 contiki-srf06-cc26xx.a(process.o)
 .ARM.attributes
                0x0000000000000c5a       0x33 contiki-srf06-cc26xx.a(rtimer.o)
 .ARM.attributes
                0x0000000000000c8d       0x33 contiki-srf06-cc26xx.a(timer.o)
 .ARM.attributes
                0x0000000000000cc0       0x33 contiki-srf06-cc26xx.a(serial-line.o)
 .ARM.attributes
                0x0000000000000cf3       0x33 contiki-srf06-cc26xx.a(ringbuf.o)
 .ARM.attributes
                0x0000000000000d26       0x33 contiki-srf06-cc26xx.a(list.o)
 .ARM.attributes
                0x0000000000000d59       0x33 contiki-srf06-cc26xx.a(memb.o)
 .ARM.attributes
                0x0000000000000d8c       0x33 contiki-srf06-cc26xx.a(uip-icmp6.o)
 .ARM.attributes
                0x0000000000000dbf       0x33 contiki-srf06-cc26xx.a(uip-ds6.o)
 .ARM.attributes
                0x0000000000000df2       0x33 contiki-srf06-cc26xx.a(uip-ds6-route.o)
 .ARM.attributes
                0x0000000000000e25       0x33 contiki-srf06-cc26xx.a(uip6.o)
 .ARM.attributes
                0x0000000000000e58       0x33 contiki-srf06-cc26xx.a(uip-ds6-nbr.o)
 .ARM.attributes
                0x0000000000000e8b       0x33 contiki-srf06-cc26xx.a(uip-nd6.o)
 .ARM.attributes
                0x0000000000000ebe       0x33 contiki-srf06-cc26xx.a(sicslowpan.o)
 .ARM.attributes
                0x0000000000000ef1       0x33 contiki-srf06-cc26xx.a(uip-debug.o)
 .ARM.attributes
                0x0000000000000f24       0x33 contiki-srf06-cc26xx.a(tcp-socket.o)
 .ARM.attributes
                0x0000000000000f57       0x33 contiki-srf06-cc26xx.a(uiplib.o)
 .ARM.attributes
                0x0000000000000f8a       0x33 contiki-srf06-cc26xx.a(uip-udp-packet.)
 .ARM.attributes
                0x0000000000000fbd       0x33 contiki-srf06-cc26xx.a(psock.o)
 .ARM.attributes
                0x0000000000000ff0       0x33 contiki-srf06-cc26xx.a(tcpip.o)
 .ARM.attributes
                0x0000000000001023       0x33 contiki-srf06-cc26xx.a(rpl-dag.o)
 .ARM.attributes
                0x0000000000001056       0x33 contiki-srf06-cc26xx.a(rpl-timers.o)
 .ARM.attributes
                0x0000000000001089       0x33 contiki-srf06-cc26xx.a(rpl-ext-header.)
 .ARM.attributes
                0x00000000000010bc       0x33 contiki-srf06-cc26xx.a(rpl.o)
 .ARM.attributes
                0x00000000000010ef       0x33 contiki-srf06-cc26xx.a(rpl-mrhof.o)
 .ARM.attributes
                0x0000000000001122       0x33 contiki-srf06-cc26xx.a(rpl-icmp6.o)
 .ARM.attributes
                0x0000000000001155       0x33 contiki-srf06-cc26xx.a(setup.o)
 .ARM.attributes
                0x0000000000001188       0x33 contiki-srf06-cc26xx.a(aon_batmon.o)
 .ARM.attributes
                0x00000000000011bb       0x33 contiki-srf06-cc26xx.a(osc.o)
 .ARM.attributes
                0x00000000000011ee       0x33 contiki-srf06-cc26xx.a(ddi.o)
 .ARM.attributes
                0x0000000000001221       0x33 contiki-srf06-cc26xx.a(sys_ctrl.o)
 .ARM.attributes
                0x0000000000001254       0x33 contiki-srf06-cc26xx.a(adi.o)
 .ARM.attributes
                0x0000000000001287       0x33 contiki-srf06-cc26xx.a(pwr_ctrl.o)
 .ARM.attributes
                0x00000000000012ba       0x33 contiki-srf06-cc26xx.a(trng.o)
 .ARM.attributes
                0x00000000000012ed       0x33 contiki-srf06-cc26xx.a(cpu.o)
 .ARM.attributes
                0x0000000000001320       0x33 contiki-srf06-cc26xx.a(aon_rtc.o)
 .ARM.attributes
                0x0000000000001353       0x33 contiki-srf06-cc26xx.a(chipinfo.o)
 .ARM.attributes
                0x0000000000001386       0x33 contiki-srf06-cc26xx.a(queuebuf.o)
 .ARM.attributes
                0x00000000000013b9       0x33 contiki-srf06-cc26xx.a(nbr-table.o)
 .ARM.attributes
                0x00000000000013ec       0x33 contiki-srf06-cc26xx.a(packetbuf.o)
 .ARM.attributes
                0x000000000000141f       0x33 contiki-srf06-cc26xx.a(netstack.o)
 .ARM.attributes
                0x0000000000001452       0x33 contiki-srf06-cc26xx.a(linkaddr.o)
 .ARM.attributes
                0x0000000000001485       0x33 contiki-srf06-cc26xx.a(link-stats.o)
 .ARM.attributes
                0x00000000000014b8       0x33 contiki-srf06-cc26xx.a(framer-802154.o)
 .ARM.attributes
                0x00000000000014eb       0x33 contiki-srf06-cc26xx.a(frame802154.o)
 .ARM.attributes
                0x000000000000151e       0x33 contiki-srf06-cc26xx.a(csma.o)
 .ARM.attributes
                0x0000000000001551       0x33 contiki-srf06-cc26xx.a(contikimac.o)
 .ARM.attributes
                0x0000000000001584       0x33 contiki-srf06-cc26xx.a(nullsec.o)
 .ARM.attributes
                0x00000000000015b7       0x33 contiki-srf06-cc26xx.a(er-coap.o)
 .ARM.attributes
                0x00000000000015ea       0x33 contiki-srf06-cc26xx.a(sensor-common.o)
 .ARM.attributes
                0x000000000000161d       0x33 contiki-srf06-cc26xx.a(aux-ctrl.o)
 .ARM.attributes
                0x0000000000001650       0x33 contiki-srf06-cc26xx.a(rf-core.o)
 .ARM.attributes
                0x0000000000001683       0x33 contiki-srf06-cc26xx.a(stimer.o)
 .ARM.attributes
                0x00000000000016b6       0x33 contiki-srf06-cc26xx.a(rpl-nbr-policy.)
 .ARM.attributes
                0x00000000000016e9       0x33 contiki-srf06-cc26xx.a(setup_rom.o)
 .ARM.attributes
                0x000000000000171c       0x33 contiki-srf06-cc26xx.a(mac-sequence.o)
 .ARM.attributes
                0x000000000000174f       0x33 contiki-srf06-cc26xx.a(mac.o)
 .ARM.attributes
                0x0000000000001782       0x2d /usr/lib/gcc/arm-none-eabi/5.4.1/../../../arm-none-eabi/lib/armv7-m/libm.a(lib_a-w_exp2.o)
 .ARM.attributes
                0x00000000000017af       0x2d /usr/lib/gcc/arm-none-eabi/5.4.1/../../../arm-none-eabi/lib/armv7-m/libm.a(lib_a-w_pow.o)
 .ARM.attributes
                0x00000000000017dc       0x2d /usr/lib/gcc/arm-none-eabi/5.4.1/../../../arm-none-eabi/lib/armv7-m/libm.a(lib_a-e_pow.o)
 .ARM.attributes
                0x0000000000001809       0x2d /usr/lib/gcc/arm-none-eabi/5.4.1/../../../arm-none-eabi/lib/armv7-m/libm.a(lib_a-e_sqrt.o)
 .ARM.attributes
                0x0000000000001836       0x2d /usr/lib/gcc/arm-none-eabi/5.4.1/../../../arm-none-eabi/lib/armv7-m/libm.a(lib_a-s_fabs.o)
 .ARM.attributes
                0x0000000000001863       0x2d /usr/lib/gcc/arm-none-eabi/5.4.1/../../../arm-none-eabi/lib/armv7-m/libm.a(lib_a-s_finite.o)
 .ARM.attributes
                0x0000000000001890       0x2d /usr/lib/gcc/arm-none-eabi/5.4.1/../../../arm-none-eabi/lib/armv7-m/libm.a(lib_a-s_lib_ver.o)
 .ARM.attributes
                0x00000000000018bd       0x2d /usr/lib/gcc/arm-none-eabi/5.4.1/../../../arm-none-eabi/lib/armv7-m/libm.a(lib_a-s_matherr.o)
 .ARM.attributes
                0x00000000000018ea       0x2d /usr/lib/gcc/arm-none-eabi/5.4.1/../../../arm-none-eabi/lib/armv7-m/libm.a(lib_a-s_nan.o)
 .ARM.attributes
                0x0000000000001917       0x2d /usr/lib/gcc/arm-none-eabi/5.4.1/../../../arm-none-eabi/lib/armv7-m/libm.a(lib_a-s_rint.o)
 .ARM.attributes
                0x0000000000001944       0x2d /usr/lib/gcc/arm-none-eabi/5.4.1/../../../arm-none-eabi/lib/armv7-m/libm.a(lib_a-s_scalbn.o)
 .ARM.attributes
                0x0000000000001971       0x2d /usr/lib/gcc/arm-none-eabi/5.4.1/../../../arm-none-eabi/lib/armv7-m/libm.a(lib_a-s_copysign.o)
 .ARM.attributes
                0x000000000000199e       0x1d /usr/lib/gcc/arm-none-eabi/5.4.1/armv7-m/libgcc.a(_arm_addsubdf3.o)
 .ARM.attributes
                0x00000000000019bb       0x1d /usr/lib/gcc/arm-none-eabi/5.4.1/armv7-m/libgcc.a(_arm_muldivdf3.o)
 .ARM.attributes
                0x00000000000019d8       0x1d /usr/lib/gcc/arm-none-eabi/5.4.1/armv7-m/libgcc.a(_arm_cmpdf2.o)
 .ARM.attributes
                0x00000000000019f5       0x1d /usr/lib/gcc/arm-none-eabi/5.4.1/armv7-m/libgcc.a(_arm_unorddf2.o)
 .ARM.attributes
                0x0000000000001a12       0x1d /usr/lib/gcc/arm-none-eabi/5.4.1/armv7-m/libgcc.a(_arm_truncdfsf2.o)
 .ARM.attributes
                0x0000000000001a2f       0x1d /usr/lib/gcc/arm-none-eabi/5.4.1/armv7-m/libgcc.a(_arm_addsubsf3.o)
 .ARM.attributes
                0x0000000000001a4c       0x1d /usr/lib/gcc/arm-none-eabi/5.4.1/armv7-m/libgcc.a(_arm_muldivsf3.o)
 .ARM.attributes
                0x0000000000001a69       0x1d /usr/lib/gcc/arm-none-eabi/5.4.1/armv7-m/libgcc.a(_arm_fixsfsi.o)
 .ARM.attributes
                0x0000000000001a86       0x1d /usr/lib/gcc/arm-none-eabi/5.4.1/armv7-m/libgcc.a(_aeabi_uldivmod.o)
 .ARM.attributes
                0x0000000000001aa3       0x2d /usr/lib/gcc/arm-none-eabi/5.4.1/armv7-m/libgcc.a(_udivmoddi4.o)
 .ARM.attributes
                0x0000000000001ad0       0x1d /usr/lib/gcc/arm-none-eabi/5.4.1/armv7-m/libgcc.a(_dvmd_tls.o)
 .ARM.attributes
                0x0000000000001aed       0x2d /usr/lib/gcc/arm-none-eabi/5.4.1/../../../arm-none-eabi/lib/armv7-m/libc.a(lib_a-atoi.o)
 .ARM.attributes
                0x0000000000001b1a       0x2d /usr/lib/gcc/arm-none-eabi/5.4.1/../../../arm-none-eabi/lib/armv7-m/libc.a(lib_a-ctype_.o)
 .ARM.attributes
                0x0000000000001b47       0x2d /usr/lib/gcc/arm-none-eabi/5.4.1/../../../arm-none-eabi/lib/armv7-m/libc.a(lib_a-errno.o)
 .ARM.attributes
                0x0000000000001b74       0x2d /usr/lib/gcc/arm-none-eabi/5.4.1/../../../arm-none-eabi/lib/armv7-m/libc.a(lib_a-impure.o)
 .ARM.attributes
                0x0000000000001ba1       0x2d /usr/lib/gcc/arm-none-eabi/5.4.1/../../../arm-none-eabi/lib/armv7-m/libc.a(lib_a-memchr-stub.o)
 .ARM.attributes
                0x0000000000001bce       0x2d /usr/lib/gcc/arm-none-eabi/5.4.1/../../../arm-none-eabi/lib/armv7-m/libc.a(lib_a-memcmp.o)
 .ARM.attributes
                0x0000000000001bfb       0x1b /usr/lib/gcc/arm-none-eabi/5.4.1/../../../arm-none-eabi/lib/armv7-m/libc.a(lib_a-memcpy.o)
 .ARM.attributes
                0x0000000000001c16       0x2d /usr/lib/gcc/arm-none-eabi/5.4.1/../../../arm-none-eabi/lib/armv7-m/libc.a(lib_a-memmove.o)
 .ARM.attributes
                0x0000000000001c43       0x2d /usr/lib/gcc/arm-none-eabi/5.4.1/../../../arm-none-eabi/lib/armv7-m/libc.a(lib_a-memset.o)
 .ARM.attributes
                0x0000000000001c70       0x2d /usr/lib/gcc/arm-none-eabi/5.4.1/../../../arm-none-eabi/lib/armv7-m/libc.a(lib_a-strchr.o)
 .ARM.attributes
                0x0000000000001c9d       0x2d /usr/lib/gcc/arm-none-eabi/5.4.1/../../../arm-none-eabi/lib/armv7-m/libc.a(lib_a-strlen-stub.o)
 .ARM.attributes
                0x0000000000001cca       0x2d /usr/lib/gcc/arm-none-eabi/5.4.1/../../../arm-none-eabi/lib/armv7-m/libc.a(lib_a-strncasecmp.o)
 .ARM.attributes
                0x0000000000001cf7       0x2d /usr/lib/gcc/arm-none-eabi/5.4.1/../../../arm-none-eabi/lib/armv7-m/libc.a(lib_a-strncmp.o)
 .ARM.attributes
                0x0000000000001d24       0x2d /usr/lib/gcc/arm-none-eabi/5.4.1/../../../arm-none-eabi/lib/armv7-m/libc.a(lib_a-strncpy.o)
 .ARM.attributes
                0x0000000000001d51       0x2d /usr/lib/gcc/arm-none-eabi/5.4.1/../../../arm-none-eabi/lib/armv7-m/libc.a(lib_a-strtol.o)

.debug_info     0x0000000000000000     0x5226
 .debug_info    0x0000000000000000       0xcb /usr/lib/gcc/arm-none-eabi/5.4.1/../../../arm-none-eabi/lib/armv7-m/libm.a(lib_a-w_exp2.o)
 .debug_info    0x00000000000000cb      0x2a1 /usr/lib/gcc/arm-none-eabi/5.4.1/../../../arm-none-eabi/lib/armv7-m/libm.a(lib_a-w_pow.o)
 .debug_info    0x000000000000036c      0x719 /usr/lib/gcc/arm-none-eabi/5.4.1/../../../arm-none-eabi/lib/armv7-m/libm.a(lib_a-e_pow.o)
 .debug_info    0x0000000000000a85      0x214 /usr/lib/gcc/arm-none-eabi/5.4.1/../../../arm-none-eabi/lib/armv7-m/libm.a(lib_a-e_sqrt.o)
 .debug_info    0x0000000000000c99      0x13a /usr/lib/gcc/arm-none-eabi/5.4.1/../../../arm-none-eabi/lib/armv7-m/libm.a(lib_a-s_fabs.o)
 .debug_info    0x0000000000000dd3       0xd2 /usr/lib/gcc/arm-none-eabi/5.4.1/../../../arm-none-eabi/lib/armv7-m/libm.a(lib_a-s_finite.o)
 .debug_info    0x0000000000000ea5       0xc2 /usr/lib/gcc/arm-none-eabi/5.4.1/../../../arm-none-eabi/lib/armv7-m/libm.a(lib_a-s_lib_ver.o)
 .debug_info    0x0000000000000f67      0x129 /usr/lib/gcc/arm-none-eabi/5.4.1/../../../arm-none-eabi/lib/armv7-m/libm.a(lib_a-s_matherr.o)
 .debug_info    0x0000000000001090       0xd2 /usr/lib/gcc/arm-none-eabi/5.4.1/../../../arm-none-eabi/lib/armv7-m/libm.a(lib_a-s_nan.o)
 .debug_info    0x0000000000001162      0x20d /usr/lib/gcc/arm-none-eabi/5.4.1/../../../arm-none-eabi/lib/armv7-m/libm.a(lib_a-s_rint.o)
 .debug_info    0x000000000000136f      0x262 /usr/lib/gcc/arm-none-eabi/5.4.1/../../../arm-none-eabi/lib/armv7-m/libm.a(lib_a-s_scalbn.o)
 .debug_info    0x00000000000015d1      0x151 /usr/lib/gcc/arm-none-eabi/5.4.1/../../../arm-none-eabi/lib/armv7-m/libm.a(lib_a-s_copysign.o)
 .debug_info    0x0000000000001722       0xba /usr/lib/gcc/arm-none-eabi/5.4.1/armv7-m/libgcc.a(_arm_addsubdf3.o)
 .debug_info    0x00000000000017dc       0xba /usr/lib/gcc/arm-none-eabi/5.4.1/armv7-m/libgcc.a(_arm_muldivdf3.o)
 .debug_info    0x0000000000001896       0xba /usr/lib/gcc/arm-none-eabi/5.4.1/armv7-m/libgcc.a(_arm_cmpdf2.o)
 .debug_info    0x0000000000001950       0xba /usr/lib/gcc/arm-none-eabi/5.4.1/armv7-m/libgcc.a(_arm_unorddf2.o)
 .debug_info    0x0000000000001a0a       0xba /usr/lib/gcc/arm-none-eabi/5.4.1/armv7-m/libgcc.a(_arm_truncdfsf2.o)
 .debug_info    0x0000000000001ac4       0xba /usr/lib/gcc/arm-none-eabi/5.4.1/armv7-m/libgcc.a(_arm_addsubsf3.o)
 .debug_info    0x0000000000001b7e       0xba /usr/lib/gcc/arm-none-eabi/5.4.1/armv7-m/libgcc.a(_arm_muldivsf3.o)
 .debug_info    0x0000000000001c38       0xba /usr/lib/gcc/arm-none-eabi/5.4.1/armv7-m/libgcc.a(_arm_fixsfsi.o)
 .debug_info    0x0000000000001cf2       0xb5 /usr/lib/gcc/arm-none-eabi/5.4.1/armv7-m/libgcc.a(_aeabi_uldivmod.o)
 .debug_info    0x0000000000001da7      0x42c /usr/lib/gcc/arm-none-eabi/5.4.1/armv7-m/libgcc.a(_udivmoddi4.o)
 .debug_info    0x00000000000021d3       0xb9 /usr/lib/gcc/arm-none-eabi/5.4.1/armv7-m/libgcc.a(_dvmd_tls.o)
 .debug_info    0x000000000000228c      0x919 /usr/lib/gcc/arm-none-eabi/5.4.1/../../../arm-none-eabi/lib/armv7-m/libc.a(lib_a-atoi.o)
 .debug_info    0x0000000000002ba5       0xbc /usr/lib/gcc/arm-none-eabi/5.4.1/../../../arm-none-eabi/lib/armv7-m/libc.a(lib_a-ctype_.o)
 .debug_info    0x0000000000002c61      0x890 /usr/lib/gcc/arm-none-eabi/5.4.1/../../../arm-none-eabi/lib/armv7-m/libc.a(lib_a-errno.o)
 .debug_info    0x00000000000034f1      0x89b /usr/lib/gcc/arm-none-eabi/5.4.1/../../../arm-none-eabi/lib/armv7-m/libc.a(lib_a-impure.o)
 .debug_info    0x0000000000003d8c      0x132 /usr/lib/gcc/arm-none-eabi/5.4.1/../../../arm-none-eabi/lib/armv7-m/libc.a(lib_a-memchr-stub.o)
 .debug_info    0x0000000000003ebe      0x11a /usr/lib/gcc/arm-none-eabi/5.4.1/../../../arm-none-eabi/lib/armv7-m/libc.a(lib_a-memcmp.o)
 .debug_info    0x0000000000003fd8       0xc2 /usr/lib/gcc/arm-none-eabi/5.4.1/../../../arm-none-eabi/lib/armv7-m/libc.a(lib_a-memcpy.o)
 .debug_info    0x000000000000409a      0x138 /usr/lib/gcc/arm-none-eabi/5.4.1/../../../arm-none-eabi/lib/armv7-m/libc.a(lib_a-memmove.o)
 .debug_info    0x00000000000041d2      0x11e /usr/lib/gcc/arm-none-eabi/5.4.1/../../../arm-none-eabi/lib/armv7-m/libc.a(lib_a-memset.o)
 .debug_info    0x00000000000042f0      0x11d /usr/lib/gcc/arm-none-eabi/5.4.1/../../../arm-none-eabi/lib/armv7-m/libc.a(lib_a-strchr.o)
 .debug_info    0x000000000000440d       0xbc /usr/lib/gcc/arm-none-eabi/5.4.1/../../../arm-none-eabi/lib/armv7-m/libc.a(lib_a-strlen-stub.o)
 .debug_info    0x00000000000044c9      0x170 /usr/lib/gcc/arm-none-eabi/5.4.1/../../../arm-none-eabi/lib/armv7-m/libc.a(lib_a-strncasecmp.o)
 .debug_info    0x0000000000004639       0xfc /usr/lib/gcc/arm-none-eabi/5.4.1/../../../arm-none-eabi/lib/armv7-m/libc.a(lib_a-strncmp.o)
 .debug_info    0x0000000000004735      0x139 /usr/lib/gcc/arm-none-eabi/5.4.1/../../../arm-none-eabi/lib/armv7-m/libc.a(lib_a-strncpy.o)
 .debug_info    0x000000000000486e      0x9b8 /usr/lib/gcc/arm-none-eabi/5.4.1/../../../arm-none-eabi/lib/armv7-m/libc.a(lib_a-strtol.o)

.debug_abbrev   0x0000000000000000     0x1859
 .debug_abbrev  0x0000000000000000       0x74 /usr/lib/gcc/arm-none-eabi/5.4.1/../../../arm-none-eabi/lib/armv7-m/libm.a(lib_a-w_exp2.o)
 .debug_abbrev  0x0000000000000074      0x123 /usr/lib/gcc/arm-none-eabi/5.4.1/../../../arm-none-eabi/lib/armv7-m/libm.a(lib_a-w_pow.o)
 .debug_abbrev  0x0000000000000197      0x1be /usr/lib/gcc/arm-none-eabi/5.4.1/../../../arm-none-eabi/lib/armv7-m/libm.a(lib_a-e_pow.o)
 .debug_abbrev  0x0000000000000355       0xfe /usr/lib/gcc/arm-none-eabi/5.4.1/../../../arm-none-eabi/lib/armv7-m/libm.a(lib_a-e_sqrt.o)
 .debug_abbrev  0x0000000000000453       0xbb /usr/lib/gcc/arm-none-eabi/5.4.1/../../../arm-none-eabi/lib/armv7-m/libm.a(lib_a-s_fabs.o)
 .debug_abbrev  0x000000000000050e       0x6d /usr/lib/gcc/arm-none-eabi/5.4.1/../../../arm-none-eabi/lib/armv7-m/libm.a(lib_a-s_finite.o)
 .debug_abbrev  0x000000000000057b       0x5a /usr/lib/gcc/arm-none-eabi/5.4.1/../../../arm-none-eabi/lib/armv7-m/libm.a(lib_a-s_lib_ver.o)
 .debug_abbrev  0x00000000000005d5       0x9a /usr/lib/gcc/arm-none-eabi/5.4.1/../../../arm-none-eabi/lib/armv7-m/libm.a(lib_a-s_matherr.o)
 .debug_abbrev  0x000000000000066f       0x72 /usr/lib/gcc/arm-none-eabi/5.4.1/../../../arm-none-eabi/lib/armv7-m/libm.a(lib_a-s_nan.o)
 .debug_abbrev  0x00000000000006e1      0x120 /usr/lib/gcc/arm-none-eabi/5.4.1/../../../arm-none-eabi/lib/armv7-m/libm.a(lib_a-s_rint.o)
 .debug_abbrev  0x0000000000000801      0x126 /usr/lib/gcc/arm-none-eabi/5.4.1/../../../arm-none-eabi/lib/armv7-m/libm.a(lib_a-s_scalbn.o)
 .debug_abbrev  0x0000000000000927       0xe6 /usr/lib/gcc/arm-none-eabi/5.4.1/../../../arm-none-eabi/lib/armv7-m/libm.a(lib_a-s_copysign.o)
 .debug_abbrev  0x0000000000000a0d       0x14 /usr/lib/gcc/arm-none-eabi/5.4.1/armv7-m/libgcc.a(_arm_addsubdf3.o)
 .debug_abbrev  0x0000000000000a21       0x14 /usr/lib/gcc/arm-none-eabi/5.4.1/armv7-m/libgcc.a(_arm_muldivdf3.o)
 .debug_abbrev  0x0000000000000a35       0x14 /usr/lib/gcc/arm-none-eabi/5.4.1/armv7-m/libgcc.a(_arm_cmpdf2.o)
 .debug_abbrev  0x0000000000000a49       0x14 /usr/lib/gcc/arm-none-eabi/5.4.1/armv7-m/libgcc.a(_arm_unorddf2.o)
 .debug_abbrev  0x0000000000000a5d       0x14 /usr/lib/gcc/arm-none-eabi/5.4.1/armv7-m/libgcc.a(_arm_truncdfsf2.o)
 .debug_abbrev  0x0000000000000a71       0x14 /usr/lib/gcc/arm-none-eabi/5.4.1/armv7-m/libgcc.a(_arm_addsubsf3.o)
 .debug_abbrev  0x0000000000000a85       0x14 /usr/lib/gcc/arm-none-eabi/5.4.1/armv7-m/libgcc.a(_arm_muldivsf3.o)
 .debug_abbrev  0x0000000000000a99       0x14 /usr/lib/gcc/arm-none-eabi/5.4.1/armv7-m/libgcc.a(_arm_fixsfsi.o)
 .debug_abbrev  0x0000000000000aad       0x14 /usr/lib/gcc/arm-none-eabi/5.4.1/armv7-m/libgcc.a(_aeabi_uldivmod.o)
 .debug_abbrev  0x0000000000000ac1      0x101 /usr/lib/gcc/arm-none-eabi/5.4.1/armv7-m/libgcc.a(_udivmoddi4.o)
 .debug_abbrev  0x0000000000000bc2       0x14 /usr/lib/gcc/arm-none-eabi/5.4.1/armv7-m/libgcc.a(_dvmd_tls.o)
 .debug_abbrev  0x0000000000000bd6      0x1ba /usr/lib/gcc/arm-none-eabi/5.4.1/../../../arm-none-eabi/lib/armv7-m/libc.a(lib_a-atoi.o)
 .debug_abbrev  0x0000000000000d90       0x59 /usr/lib/gcc/arm-none-eabi/5.4.1/../../../arm-none-eabi/lib/armv7-m/libc.a(lib_a-ctype_.o)
 .debug_abbrev  0x0000000000000de9      0x18f /usr/lib/gcc/arm-none-eabi/5.4.1/../../../arm-none-eabi/lib/armv7-m/libc.a(lib_a-errno.o)
 .debug_abbrev  0x0000000000000f78      0x180 /usr/lib/gcc/arm-none-eabi/5.4.1/../../../arm-none-eabi/lib/armv7-m/libc.a(lib_a-impure.o)
 .debug_abbrev  0x00000000000010f8       0xab /usr/lib/gcc/arm-none-eabi/5.4.1/../../../arm-none-eabi/lib/armv7-m/libc.a(lib_a-memchr-stub.o)
 .debug_abbrev  0x00000000000011a3       0x7f /usr/lib/gcc/arm-none-eabi/5.4.1/../../../arm-none-eabi/lib/armv7-m/libc.a(lib_a-memcmp.o)
 .debug_abbrev  0x0000000000001222       0x14 /usr/lib/gcc/arm-none-eabi/5.4.1/../../../arm-none-eabi/lib/armv7-m/libc.a(lib_a-memcpy.o)
 .debug_abbrev  0x0000000000001236       0xab /usr/lib/gcc/arm-none-eabi/5.4.1/../../../arm-none-eabi/lib/armv7-m/libc.a(lib_a-memmove.o)
 .debug_abbrev  0x00000000000012e1       0x9f /usr/lib/gcc/arm-none-eabi/5.4.1/../../../arm-none-eabi/lib/armv7-m/libc.a(lib_a-memset.o)
 .debug_abbrev  0x0000000000001380       0x83 /usr/lib/gcc/arm-none-eabi/5.4.1/../../../arm-none-eabi/lib/armv7-m/libc.a(lib_a-strchr.o)
 .debug_abbrev  0x0000000000001403       0x70 /usr/lib/gcc/arm-none-eabi/5.4.1/../../../arm-none-eabi/lib/armv7-m/libc.a(lib_a-strlen-stub.o)
 .debug_abbrev  0x0000000000001473       0xb1 /usr/lib/gcc/arm-none-eabi/5.4.1/../../../arm-none-eabi/lib/armv7-m/libc.a(lib_a-strncasecmp.o)
 .debug_abbrev  0x0000000000001524       0x81 /usr/lib/gcc/arm-none-eabi/5.4.1/../../../arm-none-eabi/lib/armv7-m/libc.a(lib_a-strncmp.o)
 .debug_abbrev  0x00000000000015a5       0xa6 /usr/lib/gcc/arm-none-eabi/5.4.1/../../../arm-none-eabi/lib/armv7-m/libc.a(lib_a-strncpy.o)
 .debug_abbrev  0x000000000000164b      0x20e /usr/lib/gcc/arm-none-eabi/5.4.1/../../../arm-none-eabi/lib/armv7-m/libc.a(lib_a-strtol.o)

.debug_loc      0x0000000000000000     0x4203
 .debug_loc     0x0000000000000000       0x28 /usr/lib/gcc/arm-none-eabi/5.4.1/../../../arm-none-eabi/lib/armv7-m/libm.a(lib_a-w_exp2.o)
 .debug_loc     0x0000000000000028      0x143 /usr/lib/gcc/arm-none-eabi/5.4.1/../../../arm-none-eabi/lib/armv7-m/libm.a(lib_a-w_pow.o)
 .debug_loc     0x000000000000016b     0x13f2 /usr/lib/gcc/arm-none-eabi/5.4.1/../../../arm-none-eabi/lib/armv7-m/libm.a(lib_a-e_pow.o)
 .debug_loc     0x000000000000155d      0x487 /usr/lib/gcc/arm-none-eabi/5.4.1/../../../arm-none-eabi/lib/armv7-m/libm.a(lib_a-e_sqrt.o)
 .debug_loc     0x00000000000019e4       0x2b /usr/lib/gcc/arm-none-eabi/5.4.1/../../../arm-none-eabi/lib/armv7-m/libm.a(lib_a-s_fabs.o)
 .debug_loc     0x0000000000001a0f       0x28 /usr/lib/gcc/arm-none-eabi/5.4.1/../../../arm-none-eabi/lib/armv7-m/libm.a(lib_a-s_finite.o)
 .debug_loc     0x0000000000001a37       0x21 /usr/lib/gcc/arm-none-eabi/5.4.1/../../../arm-none-eabi/lib/armv7-m/libm.a(lib_a-s_matherr.o)
 .debug_loc     0x0000000000001a58       0x21 /usr/lib/gcc/arm-none-eabi/5.4.1/../../../arm-none-eabi/lib/armv7-m/libm.a(lib_a-s_nan.o)
 .debug_loc     0x0000000000001a79      0x301 /usr/lib/gcc/arm-none-eabi/5.4.1/../../../arm-none-eabi/lib/armv7-m/libm.a(lib_a-s_rint.o)
 .debug_loc     0x0000000000001d7a      0x1db /usr/lib/gcc/arm-none-eabi/5.4.1/../../../arm-none-eabi/lib/armv7-m/libm.a(lib_a-s_scalbn.o)
 .debug_loc     0x0000000000001f55       0x53 /usr/lib/gcc/arm-none-eabi/5.4.1/../../../arm-none-eabi/lib/armv7-m/libm.a(lib_a-s_copysign.o)
 .debug_loc     0x0000000000001fa8      0xebf /usr/lib/gcc/arm-none-eabi/5.4.1/armv7-m/libgcc.a(_udivmoddi4.o)
 .debug_loc     0x0000000000002e67       0x63 /usr/lib/gcc/arm-none-eabi/5.4.1/../../../arm-none-eabi/lib/armv7-m/libc.a(lib_a-atoi.o)
 .debug_loc     0x0000000000002eca      0x1ba /usr/lib/gcc/arm-none-eabi/5.4.1/../../../arm-none-eabi/lib/armv7-m/libc.a(lib_a-memchr-stub.o)
 .debug_loc     0x0000000000003084      0x159 /usr/lib/gcc/arm-none-eabi/5.4.1/../../../arm-none-eabi/lib/armv7-m/libc.a(lib_a-memcmp.o)
 .debug_loc     0x00000000000031dd      0x2aa /usr/lib/gcc/arm-none-eabi/5.4.1/../../../arm-none-eabi/lib/armv7-m/libc.a(lib_a-memmove.o)
 .debug_loc     0x0000000000003487      0x1ae /usr/lib/gcc/arm-none-eabi/5.4.1/../../../arm-none-eabi/lib/armv7-m/libc.a(lib_a-memset.o)
 .debug_loc     0x0000000000003635      0x223 /usr/lib/gcc/arm-none-eabi/5.4.1/../../../arm-none-eabi/lib/armv7-m/libc.a(lib_a-strchr.o)
 .debug_loc     0x0000000000003858       0x21 /usr/lib/gcc/arm-none-eabi/5.4.1/../../../arm-none-eabi/lib/armv7-m/libc.a(lib_a-strlen-stub.o)
 .debug_loc     0x0000000000003879      0x335 /usr/lib/gcc/arm-none-eabi/5.4.1/../../../arm-none-eabi/lib/armv7-m/libc.a(lib_a-strncasecmp.o)
 .debug_loc     0x0000000000003bae      0x1b0 /usr/lib/gcc/arm-none-eabi/5.4.1/../../../arm-none-eabi/lib/armv7-m/libc.a(lib_a-strncmp.o)
 .debug_loc     0x0000000000003d5e      0x155 /usr/lib/gcc/arm-none-eabi/5.4.1/../../../arm-none-eabi/lib/armv7-m/libc.a(lib_a-strncpy.o)
 .debug_loc     0x0000000000003eb3      0x350 /usr/lib/gcc/arm-none-eabi/5.4.1/../../../arm-none-eabi/lib/armv7-m/libc.a(lib_a-strtol.o)

.debug_aranges  0x0000000000000000      0x4a8
 .debug_aranges
                0x0000000000000000       0x20 /usr/lib/gcc/arm-none-eabi/5.4.1/../../../arm-none-eabi/lib/armv7-m/libm.a(lib_a-w_exp2.o)
 .debug_aranges
                0x0000000000000020       0x20 /usr/lib/gcc/arm-none-eabi/5.4.1/../../../arm-none-eabi/lib/armv7-m/libm.a(lib_a-w_pow.o)
 .debug_aranges
                0x0000000000000040       0x20 /usr/lib/gcc/arm-none-eabi/5.4.1/../../../arm-none-eabi/lib/armv7-m/libm.a(lib_a-e_pow.o)
 .debug_aranges
                0x0000000000000060       0x20 /usr/lib/gcc/arm-none-eabi/5.4.1/../../../arm-none-eabi/lib/armv7-m/libm.a(lib_a-e_sqrt.o)
 .debug_aranges
                0x0000000000000080       0x20 /usr/lib/gcc/arm-none-eabi/5.4.1/../../../arm-none-eabi/lib/armv7-m/libm.a(lib_a-s_fabs.o)
 .debug_aranges
                0x00000000000000a0       0x20 /usr/lib/gcc/arm-none-eabi/5.4.1/../../../arm-none-eabi/lib/armv7-m/libm.a(lib_a-s_finite.o)
 .debug_aranges
                0x00000000000000c0       0x18 /usr/lib/gcc/arm-none-eabi/5.4.1/../../../arm-none-eabi/lib/armv7-m/libm.a(lib_a-s_lib_ver.o)
 .debug_aranges
                0x00000000000000d8       0x20 /usr/lib/gcc/arm-none-eabi/5.4.1/../../../arm-none-eabi/lib/armv7-m/libm.a(lib_a-s_matherr.o)
 .debug_aranges
                0x00000000000000f8       0x20 /usr/lib/gcc/arm-none-eabi/5.4.1/../../../arm-none-eabi/lib/armv7-m/libm.a(lib_a-s_nan.o)
 .debug_aranges
                0x0000000000000118       0x20 /usr/lib/gcc/arm-none-eabi/5.4.1/../../../arm-none-eabi/lib/armv7-m/libm.a(lib_a-s_rint.o)
 .debug_aranges
                0x0000000000000138       0x20 /usr/lib/gcc/arm-none-eabi/5.4.1/../../../arm-none-eabi/lib/armv7-m/libm.a(lib_a-s_scalbn.o)
 .debug_aranges
                0x0000000000000158       0x20 /usr/lib/gcc/arm-none-eabi/5.4.1/../../../arm-none-eabi/lib/armv7-m/libm.a(lib_a-s_copysign.o)
 .debug_aranges
                0x0000000000000178       0x20 /usr/lib/gcc/arm-none-eabi/5.4.1/armv7-m/libgcc.a(_arm_addsubdf3.o)
 .debug_aranges
                0x0000000000000198       0x20 /usr/lib/gcc/arm-none-eabi/5.4.1/armv7-m/libgcc.a(_arm_muldivdf3.o)
 .debug_aranges
                0x00000000000001b8       0x20 /usr/lib/gcc/arm-none-eabi/5.4.1/armv7-m/libgcc.a(_arm_cmpdf2.o)
 .debug_aranges
                0x00000000000001d8       0x20 /usr/lib/gcc/arm-none-eabi/5.4.1/armv7-m/libgcc.a(_arm_unorddf2.o)
 .debug_aranges
                0x00000000000001f8       0x20 /usr/lib/gcc/arm-none-eabi/5.4.1/armv7-m/libgcc.a(_arm_truncdfsf2.o)
 .debug_aranges
                0x0000000000000218       0x20 /usr/lib/gcc/arm-none-eabi/5.4.1/armv7-m/libgcc.a(_arm_addsubsf3.o)
 .debug_aranges
                0x0000000000000238       0x20 /usr/lib/gcc/arm-none-eabi/5.4.1/armv7-m/libgcc.a(_arm_muldivsf3.o)
 .debug_aranges
                0x0000000000000258       0x20 /usr/lib/gcc/arm-none-eabi/5.4.1/armv7-m/libgcc.a(_arm_fixsfsi.o)
 .debug_aranges
                0x0000000000000278       0x20 /usr/lib/gcc/arm-none-eabi/5.4.1/armv7-m/libgcc.a(_aeabi_uldivmod.o)
 .debug_aranges
                0x0000000000000298       0x20 /usr/lib/gcc/arm-none-eabi/5.4.1/armv7-m/libgcc.a(_udivmoddi4.o)
 .debug_aranges
                0x00000000000002b8       0x20 /usr/lib/gcc/arm-none-eabi/5.4.1/armv7-m/libgcc.a(_dvmd_tls.o)
 .debug_aranges
                0x00000000000002d8       0x20 /usr/lib/gcc/arm-none-eabi/5.4.1/../../../arm-none-eabi/lib/armv7-m/libc.a(lib_a-atoi.o)
 .debug_aranges
                0x00000000000002f8       0x18 /usr/lib/gcc/arm-none-eabi/5.4.1/../../../arm-none-eabi/lib/armv7-m/libc.a(lib_a-ctype_.o)
 .debug_aranges
                0x0000000000000310       0x20 /usr/lib/gcc/arm-none-eabi/5.4.1/../../../arm-none-eabi/lib/armv7-m/libc.a(lib_a-errno.o)
 .debug_aranges
                0x0000000000000330       0x18 /usr/lib/gcc/arm-none-eabi/5.4.1/../../../arm-none-eabi/lib/armv7-m/libc.a(lib_a-impure.o)
 .debug_aranges
                0x0000000000000348       0x20 /usr/lib/gcc/arm-none-eabi/5.4.1/../../../arm-none-eabi/lib/armv7-m/libc.a(lib_a-memchr-stub.o)
 .debug_aranges
                0x0000000000000368       0x20 /usr/lib/gcc/arm-none-eabi/5.4.1/../../../arm-none-eabi/lib/armv7-m/libc.a(lib_a-memcmp.o)
 .debug_aranges
                0x0000000000000388       0x20 /usr/lib/gcc/arm-none-eabi/5.4.1/../../../arm-none-eabi/lib/armv7-m/libc.a(lib_a-memcpy.o)
 .debug_aranges
                0x00000000000003a8       0x20 /usr/lib/gcc/arm-none-eabi/5.4.1/../../../arm-none-eabi/lib/armv7-m/libc.a(lib_a-memmove.o)
 .debug_aranges
                0x00000000000003c8       0x20 /usr/lib/gcc/arm-none-eabi/5.4.1/../../../arm-none-eabi/lib/armv7-m/libc.a(lib_a-memset.o)
 .debug_aranges
                0x00000000000003e8       0x20 /usr/lib/gcc/arm-none-eabi/5.4.1/../../../arm-none-eabi/lib/armv7-m/libc.a(lib_a-strchr.o)
 .debug_aranges
                0x0000000000000408       0x20 /usr/lib/gcc/arm-none-eabi/5.4.1/../../../arm-none-eabi/lib/armv7-m/libc.a(lib_a-strlen-stub.o)
 .debug_aranges
                0x0000000000000428       0x20 /usr/lib/gcc/arm-none-eabi/5.4.1/../../../arm-none-eabi/lib/armv7-m/libc.a(lib_a-strncasecmp.o)
 .debug_aranges
                0x0000000000000448       0x20 /usr/lib/gcc/arm-none-eabi/5.4.1/../../../arm-none-eabi/lib/armv7-m/libc.a(lib_a-strncmp.o)
 .debug_aranges
                0x0000000000000468       0x20 /usr/lib/gcc/arm-none-eabi/5.4.1/../../../arm-none-eabi/lib/armv7-m/libc.a(lib_a-strncpy.o)
 .debug_aranges
                0x0000000000000488       0x20 /usr/lib/gcc/arm-none-eabi/5.4.1/../../../arm-none-eabi/lib/armv7-m/libc.a(lib_a-strtol.o)

.debug_line     0x0000000000000000     0x288f
 .debug_line    0x0000000000000000       0xa6 /usr/lib/gcc/arm-none-eabi/5.4.1/../../../arm-none-eabi/lib/armv7-m/libm.a(lib_a-w_exp2.o)
 .debug_line    0x00000000000000a6      0x208 /usr/lib/gcc/arm-none-eabi/5.4.1/../../../arm-none-eabi/lib/armv7-m/libm.a(lib_a-w_pow.o)
 .debug_line    0x00000000000002ae      0x2fb /usr/lib/gcc/arm-none-eabi/5.4.1/../../../arm-none-eabi/lib/armv7-m/libm.a(lib_a-e_pow.o)
 .debug_line    0x00000000000005a9      0x19b /usr/lib/gcc/arm-none-eabi/5.4.1/../../../arm-none-eabi/lib/armv7-m/libm.a(lib_a-e_sqrt.o)
 .debug_line    0x0000000000000744      0x13b /usr/lib/gcc/arm-none-eabi/5.4.1/../../../arm-none-eabi/lib/armv7-m/libm.a(lib_a-s_fabs.o)
 .debug_line    0x000000000000087f      0x105 /usr/lib/gcc/arm-none-eabi/5.4.1/../../../arm-none-eabi/lib/armv7-m/libm.a(lib_a-s_finite.o)
 .debug_line    0x0000000000000984       0x9a /usr/lib/gcc/arm-none-eabi/5.4.1/../../../arm-none-eabi/lib/armv7-m/libm.a(lib_a-s_lib_ver.o)
 .debug_line    0x0000000000000a1e       0xab /usr/lib/gcc/arm-none-eabi/5.4.1/../../../arm-none-eabi/lib/armv7-m/libm.a(lib_a-s_matherr.o)
 .debug_line    0x0000000000000ac9       0xa8 /usr/lib/gcc/arm-none-eabi/5.4.1/../../../arm-none-eabi/lib/armv7-m/libm.a(lib_a-s_nan.o)
 .debug_line    0x0000000000000b71      0x16e /usr/lib/gcc/arm-none-eabi/5.4.1/../../../arm-none-eabi/lib/armv7-m/libm.a(lib_a-s_rint.o)
 .debug_line    0x0000000000000cdf      0x136 /usr/lib/gcc/arm-none-eabi/5.4.1/../../../arm-none-eabi/lib/armv7-m/libm.a(lib_a-s_scalbn.o)
 .debug_line    0x0000000000000e15      0x114 /usr/lib/gcc/arm-none-eabi/5.4.1/../../../arm-none-eabi/lib/armv7-m/libm.a(lib_a-s_copysign.o)
 .debug_line    0x0000000000000f29      0x176 /usr/lib/gcc/arm-none-eabi/5.4.1/armv7-m/libgcc.a(_arm_addsubdf3.o)
 .debug_line    0x000000000000109f      0x19a /usr/lib/gcc/arm-none-eabi/5.4.1/armv7-m/libgcc.a(_arm_muldivdf3.o)
 .debug_line    0x0000000000001239       0xb7 /usr/lib/gcc/arm-none-eabi/5.4.1/armv7-m/libgcc.a(_arm_cmpdf2.o)
 .debug_line    0x00000000000012f0       0x6c /usr/lib/gcc/arm-none-eabi/5.4.1/armv7-m/libgcc.a(_arm_unorddf2.o)
 .debug_line    0x000000000000135c       0x8b /usr/lib/gcc/arm-none-eabi/5.4.1/armv7-m/libgcc.a(_arm_truncdfsf2.o)
 .debug_line    0x00000000000013e7      0x117 /usr/lib/gcc/arm-none-eabi/5.4.1/armv7-m/libgcc.a(_arm_addsubsf3.o)
 .debug_line    0x00000000000014fe      0x13a /usr/lib/gcc/arm-none-eabi/5.4.1/armv7-m/libgcc.a(_arm_muldivsf3.o)
 .debug_line    0x0000000000001638       0x77 /usr/lib/gcc/arm-none-eabi/5.4.1/armv7-m/libgcc.a(_arm_fixsfsi.o)
 .debug_line    0x00000000000016af       0x5e /usr/lib/gcc/arm-none-eabi/5.4.1/armv7-m/libgcc.a(_aeabi_uldivmod.o)
 .debug_line    0x000000000000170d      0x1ad /usr/lib/gcc/arm-none-eabi/5.4.1/armv7-m/libgcc.a(_udivmoddi4.o)
 .debug_line    0x00000000000018ba       0x5e /usr/lib/gcc/arm-none-eabi/5.4.1/armv7-m/libgcc.a(_dvmd_tls.o)
 .debug_line    0x0000000000001918      0x143 /usr/lib/gcc/arm-none-eabi/5.4.1/../../../arm-none-eabi/lib/armv7-m/libc.a(lib_a-atoi.o)
 .debug_line    0x0000000000001a5b       0x67 /usr/lib/gcc/arm-none-eabi/5.4.1/../../../arm-none-eabi/lib/armv7-m/libc.a(lib_a-ctype_.o)
 .debug_line    0x0000000000001ac2      0x101 /usr/lib/gcc/arm-none-eabi/5.4.1/../../../arm-none-eabi/lib/armv7-m/libc.a(lib_a-errno.o)
 .debug_line    0x0000000000001bc3       0xe6 /usr/lib/gcc/arm-none-eabi/5.4.1/../../../arm-none-eabi/lib/armv7-m/libc.a(lib_a-impure.o)
 .debug_line    0x0000000000001ca9      0x121 /usr/lib/gcc/arm-none-eabi/5.4.1/../../../arm-none-eabi/lib/armv7-m/libc.a(lib_a-memchr-stub.o)
 .debug_line    0x0000000000001dca      0x103 /usr/lib/gcc/arm-none-eabi/5.4.1/../../../arm-none-eabi/lib/armv7-m/libc.a(lib_a-memcmp.o)
 .debug_line    0x0000000000001ecd       0xbb /usr/lib/gcc/arm-none-eabi/5.4.1/../../../arm-none-eabi/lib/armv7-m/libc.a(lib_a-memcpy.o)
 .debug_line    0x0000000000001f88      0x11d /usr/lib/gcc/arm-none-eabi/5.4.1/../../../arm-none-eabi/lib/armv7-m/libc.a(lib_a-memmove.o)
 .debug_line    0x00000000000020a5      0x10e /usr/lib/gcc/arm-none-eabi/5.4.1/../../../arm-none-eabi/lib/armv7-m/libc.a(lib_a-memset.o)
 .debug_line    0x00000000000021b3       0xda /usr/lib/gcc/arm-none-eabi/5.4.1/../../../arm-none-eabi/lib/armv7-m/libc.a(lib_a-strchr.o)
 .debug_line    0x000000000000228d       0xeb /usr/lib/gcc/arm-none-eabi/5.4.1/../../../arm-none-eabi/lib/armv7-m/libc.a(lib_a-strlen-stub.o)
 .debug_line    0x0000000000002378      0x107 /usr/lib/gcc/arm-none-eabi/5.4.1/../../../arm-none-eabi/lib/armv7-m/libc.a(lib_a-strncasecmp.o)
 .debug_line    0x000000000000247f      0x141 /usr/lib/gcc/arm-none-eabi/5.4.1/../../../arm-none-eabi/lib/armv7-m/libc.a(lib_a-strncmp.o)
 .debug_line    0x00000000000025c0      0x109 /usr/lib/gcc/arm-none-eabi/5.4.1/../../../arm-none-eabi/lib/armv7-m/libc.a(lib_a-strncpy.o)
 .debug_line    0x00000000000026c9      0x1c6 /usr/lib/gcc/arm-none-eabi/5.4.1/../../../arm-none-eabi/lib/armv7-m/libc.a(lib_a-strtol.o)

.debug_str      0x0000000000000000     0x1092
 .debug_str     0x0000000000000000      0x147 /usr/lib/gcc/arm-none-eabi/5.4.1/../../../arm-none-eabi/lib/armv7-m/libm.a(lib_a-w_exp2.o)
                                        0x18d (size before relaxing)
 .debug_str     0x0000000000000147       0xd0 /usr/lib/gcc/arm-none-eabi/5.4.1/../../../arm-none-eabi/lib/armv7-m/libm.a(lib_a-w_pow.o)
                                        0x231 (size before relaxing)
 .debug_str     0x0000000000000217       0xde /usr/lib/gcc/arm-none-eabi/5.4.1/../../../arm-none-eabi/lib/armv7-m/libm.a(lib_a-e_pow.o)
                                        0x24e (size before relaxing)
 .debug_str     0x00000000000002f5       0x31 /usr/lib/gcc/arm-none-eabi/5.4.1/../../../arm-none-eabi/lib/armv7-m/libm.a(lib_a-e_sqrt.o)
                                        0x1de (size before relaxing)
 .debug_str     0x0000000000000326       0x31 /usr/lib/gcc/arm-none-eabi/5.4.1/../../../arm-none-eabi/lib/armv7-m/libm.a(lib_a-s_fabs.o)
                                        0x1c5 (size before relaxing)
 .debug_str     0x0000000000000357       0x8a /usr/lib/gcc/arm-none-eabi/5.4.1/../../../arm-none-eabi/lib/armv7-m/libm.a(lib_a-s_finite.o)
                                        0x1aa (size before relaxing)
 .debug_str     0x00000000000003e1       0x31 /usr/lib/gcc/arm-none-eabi/5.4.1/../../../arm-none-eabi/lib/armv7-m/libm.a(lib_a-s_lib_ver.o)
                                        0x1ea (size before relaxing)
 .debug_str     0x0000000000000412       0x31 /usr/lib/gcc/arm-none-eabi/5.4.1/../../../arm-none-eabi/lib/armv7-m/libm.a(lib_a-s_matherr.o)
                                        0x1bc (size before relaxing)
 .debug_str     0x0000000000000443       0x2d /usr/lib/gcc/arm-none-eabi/5.4.1/../../../arm-none-eabi/lib/armv7-m/libm.a(lib_a-s_nan.o)
                                        0x192 (size before relaxing)
 .debug_str     0x0000000000000470       0x9b /usr/lib/gcc/arm-none-eabi/5.4.1/../../../arm-none-eabi/lib/armv7-m/libm.a(lib_a-s_rint.o)
                                        0x1eb (size before relaxing)
 .debug_str     0x000000000000050b       0x46 /usr/lib/gcc/arm-none-eabi/5.4.1/../../../arm-none-eabi/lib/armv7-m/libm.a(lib_a-s_scalbn.o)
                                        0x1fc (size before relaxing)
 .debug_str     0x0000000000000551       0x32 /usr/lib/gcc/arm-none-eabi/5.4.1/../../../arm-none-eabi/lib/armv7-m/libm.a(lib_a-s_copysign.o)
                                        0x1cc (size before relaxing)
 .debug_str     0x0000000000000583      0x18b /usr/lib/gcc/arm-none-eabi/5.4.1/armv7-m/libgcc.a(_udivmoddi4.o)
                                        0x225 (size before relaxing)
 .debug_str     0x000000000000070e      0x447 /usr/lib/gcc/arm-none-eabi/5.4.1/../../../arm-none-eabi/lib/armv7-m/libc.a(lib_a-atoi.o)
                                        0x551 (size before relaxing)
 .debug_str     0x0000000000000b55       0x9c /usr/lib/gcc/arm-none-eabi/5.4.1/../../../arm-none-eabi/lib/armv7-m/libc.a(lib_a-ctype_.o)
                                        0x193 (size before relaxing)
 .debug_str     0x0000000000000bf1       0x85 /usr/lib/gcc/arm-none-eabi/5.4.1/../../../arm-none-eabi/lib/armv7-m/libc.a(lib_a-errno.o)
                                        0x546 (size before relaxing)
 .debug_str     0x0000000000000c76       0xa5 /usr/lib/gcc/arm-none-eabi/5.4.1/../../../arm-none-eabi/lib/armv7-m/libc.a(lib_a-impure.o)
                                        0x55e (size before relaxing)
 .debug_str     0x0000000000000d1b       0xc2 /usr/lib/gcc/arm-none-eabi/5.4.1/../../../arm-none-eabi/lib/armv7-m/libc.a(lib_a-memchr-stub.o)
                                        0x1b9 (size before relaxing)
 .debug_str     0x0000000000000ddd       0x8f /usr/lib/gcc/arm-none-eabi/5.4.1/../../../arm-none-eabi/lib/armv7-m/libc.a(lib_a-memcmp.o)
                                        0x18d (size before relaxing)
 .debug_str     0x0000000000000e6c       0x58 /usr/lib/gcc/arm-none-eabi/5.4.1/../../../arm-none-eabi/lib/armv7-m/libc.a(lib_a-memmove.o)
                                        0x1c0 (size before relaxing)
 .debug_str     0x0000000000000ec4       0x49 /usr/lib/gcc/arm-none-eabi/5.4.1/../../../arm-none-eabi/lib/armv7-m/libc.a(lib_a-memset.o)
                                        0x1a1 (size before relaxing)
 .debug_str     0x0000000000000f0d       0x35 /usr/lib/gcc/arm-none-eabi/5.4.1/../../../arm-none-eabi/lib/armv7-m/libc.a(lib_a-strchr.o)
                                        0x198 (size before relaxing)
 .debug_str     0x0000000000000f42       0x42 /usr/lib/gcc/arm-none-eabi/5.4.1/../../../arm-none-eabi/lib/armv7-m/libc.a(lib_a-strlen-stub.o)
                                        0x19f (size before relaxing)
 .debug_str     0x0000000000000f84       0x49 /usr/lib/gcc/arm-none-eabi/5.4.1/../../../arm-none-eabi/lib/armv7-m/libc.a(lib_a-strncasecmp.o)
                                        0x1af (size before relaxing)
 .debug_str     0x0000000000000fcd       0x37 /usr/lib/gcc/arm-none-eabi/5.4.1/../../../arm-none-eabi/lib/armv7-m/libc.a(lib_a-strncmp.o)
                                        0x18f (size before relaxing)
 .debug_str     0x0000000000001004       0x41 /usr/lib/gcc/arm-none-eabi/5.4.1/../../../arm-none-eabi/lib/armv7-m/libc.a(lib_a-strncpy.o)
                                        0x1b7 (size before relaxing)
 .debug_str     0x0000000000001045       0x4d /usr/lib/gcc/arm-none-eabi/5.4.1/../../../arm-none-eabi/lib/armv7-m/libc.a(lib_a-strtol.o)
                                        0x584 (size before relaxing)

.debug_frame    0x0000000000000000      0x514
 .debug_frame   0x0000000000000000       0x20 /usr/lib/gcc/arm-none-eabi/5.4.1/../../../arm-none-eabi/lib/armv7-m/libm.a(lib_a-w_exp2.o)
 .debug_frame   0x0000000000000020       0x4c /usr/lib/gcc/arm-none-eabi/5.4.1/../../../arm-none-eabi/lib/armv7-m/libm.a(lib_a-w_pow.o)
 .debug_frame   0x000000000000006c       0x68 /usr/lib/gcc/arm-none-eabi/5.4.1/../../../arm-none-eabi/lib/armv7-m/libm.a(lib_a-e_pow.o)
 .debug_frame   0x00000000000000d4       0x30 /usr/lib/gcc/arm-none-eabi/5.4.1/../../../arm-none-eabi/lib/armv7-m/libm.a(lib_a-e_sqrt.o)
 .debug_frame   0x0000000000000104       0x20 /usr/lib/gcc/arm-none-eabi/5.4.1/../../../arm-none-eabi/lib/armv7-m/libm.a(lib_a-s_fabs.o)
 .debug_frame   0x0000000000000124       0x20 /usr/lib/gcc/arm-none-eabi/5.4.1/../../../arm-none-eabi/lib/armv7-m/libm.a(lib_a-s_finite.o)
 .debug_frame   0x0000000000000144       0x20 /usr/lib/gcc/arm-none-eabi/5.4.1/../../../arm-none-eabi/lib/armv7-m/libm.a(lib_a-s_matherr.o)
 .debug_frame   0x0000000000000164       0x20 /usr/lib/gcc/arm-none-eabi/5.4.1/../../../arm-none-eabi/lib/armv7-m/libm.a(lib_a-s_nan.o)
 .debug_frame   0x0000000000000184       0x3c /usr/lib/gcc/arm-none-eabi/5.4.1/../../../arm-none-eabi/lib/armv7-m/libm.a(lib_a-s_rint.o)
 .debug_frame   0x00000000000001c0       0x30 /usr/lib/gcc/arm-none-eabi/5.4.1/../../../arm-none-eabi/lib/armv7-m/libm.a(lib_a-s_scalbn.o)
 .debug_frame   0x00000000000001f0       0x20 /usr/lib/gcc/arm-none-eabi/5.4.1/../../../arm-none-eabi/lib/armv7-m/libm.a(lib_a-s_copysign.o)
 .debug_frame   0x0000000000000210       0x2c /usr/lib/gcc/arm-none-eabi/5.4.1/armv7-m/libgcc.a(_aeabi_uldivmod.o)
 .debug_frame   0x000000000000023c       0x38 /usr/lib/gcc/arm-none-eabi/5.4.1/armv7-m/libgcc.a(_udivmoddi4.o)
 .debug_frame   0x0000000000000274       0x30 /usr/lib/gcc/arm-none-eabi/5.4.1/../../../arm-none-eabi/lib/armv7-m/libc.a(lib_a-atoi.o)
 .debug_frame   0x00000000000002a4       0x20 /usr/lib/gcc/arm-none-eabi/5.4.1/../../../arm-none-eabi/lib/armv7-m/libc.a(lib_a-errno.o)
 .debug_frame   0x00000000000002c4       0x34 /usr/lib/gcc/arm-none-eabi/5.4.1/../../../arm-none-eabi/lib/armv7-m/libc.a(lib_a-memchr-stub.o)
 .debug_frame   0x00000000000002f8       0x38 /usr/lib/gcc/arm-none-eabi/5.4.1/../../../arm-none-eabi/lib/armv7-m/libc.a(lib_a-memcmp.o)
 .debug_frame   0x0000000000000330       0x30 /usr/lib/gcc/arm-none-eabi/5.4.1/../../../arm-none-eabi/lib/armv7-m/libc.a(lib_a-memmove.o)
 .debug_frame   0x0000000000000360       0x34 /usr/lib/gcc/arm-none-eabi/5.4.1/../../../arm-none-eabi/lib/armv7-m/libc.a(lib_a-memset.o)
 .debug_frame   0x0000000000000394       0x4c /usr/lib/gcc/arm-none-eabi/5.4.1/../../../arm-none-eabi/lib/armv7-m/libc.a(lib_a-strchr.o)
 .debug_frame   0x00000000000003e0       0x20 /usr/lib/gcc/arm-none-eabi/5.4.1/../../../arm-none-eabi/lib/armv7-m/libc.a(lib_a-strlen-stub.o)
 .debug_frame   0x0000000000000400       0x38 /usr/lib/gcc/arm-none-eabi/5.4.1/../../../arm-none-eabi/lib/armv7-m/libc.a(lib_a-strncasecmp.o)
 .debug_frame   0x0000000000000438       0x54 /usr/lib/gcc/arm-none-eabi/5.4.1/../../../arm-none-eabi/lib/armv7-m/libc.a(lib_a-strncmp.o)
 .debug_frame   0x000000000000048c       0x34 /usr/lib/gcc/arm-none-eabi/5.4.1/../../../arm-none-eabi/lib/armv7-m/libc.a(lib_a-strncpy.o)
 .debug_frame   0x00000000000004c0       0x54 /usr/lib/gcc/arm-none-eabi/5.4.1/../../../arm-none-eabi/lib/armv7-m/libc.a(lib_a-strtol.o)

.debug_ranges   0x0000000000000000      0x2d0
 .debug_ranges  0x0000000000000000      0x130 /usr/lib/gcc/arm-none-eabi/5.4.1/../../../arm-none-eabi/lib/armv7-m/libm.a(lib_a-e_pow.o)
 .debug_ranges  0x0000000000000130       0x58 /usr/lib/gcc/arm-none-eabi/5.4.1/../../../arm-none-eabi/lib/armv7-m/libm.a(lib_a-s_rint.o)
 .debug_ranges  0x0000000000000188       0xf0 /usr/lib/gcc/arm-none-eabi/5.4.1/armv7-m/libgcc.a(_udivmoddi4.o)
 .debug_ranges  0x0000000000000278       0x10 /usr/lib/gcc/arm-none-eabi/5.4.1/../../../arm-none-eabi/lib/armv7-m/libc.a(lib_a-strlen-stub.o)
 .debug_ranges  0x0000000000000288       0x48 /usr/lib/gcc/arm-none-eabi/5.4.1/../../../arm-none-eabi/lib/armv7-m/libc.a(lib_a-strncasecmp.o)

Cross Reference Table

Symbol                                            File
AONIntHandler                                     obj_srf06-cc26xx/startup_gcc.o
AONProgIntHandler                                 obj_srf06-cc26xx/startup_gcc.o
AONRTCIntHandler                                  contiki-srf06-cc26xx.a(soc-rtc.o)
                                                  obj_srf06-cc26xx/startup_gcc.o
AUXADCIntHandler                                  obj_srf06-cc26xx/startup_gcc.o
AUXCombEventIntHandler                            obj_srf06-cc26xx/startup_gcc.o
AUXCompAIntHandler                                obj_srf06-cc26xx/startup_gcc.o
AUXSWEvent0IntHandler                             obj_srf06-cc26xx/startup_gcc.o
AUXSWEvent1IntHandler                             obj_srf06-cc26xx/startup_gcc.o
BusFaultIntHandler                                obj_srf06-cc26xx/startup_gcc.o
CryptoIntHandler                                  obj_srf06-cc26xx/startup_gcc.o
DebugMonIntHandler                                obj_srf06-cc26xx/startup_gcc.o
DynProgIntHandler                                 obj_srf06-cc26xx/startup_gcc.o
FaultISR                                          obj_srf06-cc26xx/fault-handlers.o
FlashIntHandler                                   obj_srf06-cc26xx/startup_gcc.o
GPIOIntHandler                                    contiki-srf06-cc26xx.a(gpio-interrupt.)
                                                  obj_srf06-cc26xx/startup_gcc.o
I2CIntHandler                                     obj_srf06-cc26xx/startup_gcc.o
I2SIntHandler                                     obj_srf06-cc26xx/startup_gcc.o
MPUFaultIntHandler                                obj_srf06-cc26xx/startup_gcc.o
NOROM_AONBatMonTemperatureGetDegC                 contiki-srf06-cc26xx.a(aon_batmon.o)
                                                  contiki-srf06-cc26xx.a(sys_ctrl.o)
                                                  contiki-srf06-cc26xx.a(osc.o)
                                                  contiki-srf06-cc26xx.a(batmon-sensor.o)
NOROM_AONRTCCurrent64BitValueGet                  contiki-srf06-cc26xx.a(aon_rtc.o)
NOROM_AONRTCCurrentCompareValueGet                contiki-srf06-cc26xx.a(aon_rtc.o)
                                                  contiki-srf06-cc26xx.a(osc.o)
                                                  contiki-srf06-cc26xx.a(soc-rtc.o)
                                                  contiki-srf06-cc26xx.a(rtimer-arch.o)
NOROM_CPUbasepriGet                               contiki-srf06-cc26xx.a(cpu.o)
NOROM_CPUcpsid                                    contiki-srf06-cc26xx.a(cpu.o)
                                                  contiki-srf06-cc26xx.a(rf-core.o)
                                                  contiki-srf06-cc26xx.a(aux-ctrl.o)
                                                  contiki-srf06-cc26xx.a(adi.o)
                                                  contiki-srf06-cc26xx.a(ddi.o)
                                                  contiki-srf06-cc26xx.a(soc-trng.o)
                                                  contiki-srf06-cc26xx.a(ieee-mode.o)
                                                  contiki-srf06-cc26xx.a(rf-ble.o)
                                                  contiki-srf06-cc26xx.a(gpio-interrupt.)
                                                  contiki-srf06-cc26xx.a(lpm.o)
                                                  contiki-srf06-cc26xx.a(cc26xx-uart.o)
                                                  contiki-srf06-cc26xx.a(contiki-watchdo)
                                                  contiki-srf06-cc26xx.a(soc-rtc.o)
                                                  contiki-srf06-cc26xx.a(clock.o)
                                                  contiki-srf06-cc26xx.a(board.o)
                                                  contiki-srf06-cc26xx.a(contiki-main.o)
NOROM_CPUcpsie                                    contiki-srf06-cc26xx.a(cpu.o)
                                                  contiki-srf06-cc26xx.a(rf-core.o)
                                                  contiki-srf06-cc26xx.a(aux-ctrl.o)
                                                  contiki-srf06-cc26xx.a(adi.o)
                                                  contiki-srf06-cc26xx.a(ddi.o)
                                                  contiki-srf06-cc26xx.a(soc-trng.o)
                                                  contiki-srf06-cc26xx.a(ieee-mode.o)
                                                  contiki-srf06-cc26xx.a(rf-ble.o)
                                                  contiki-srf06-cc26xx.a(gpio-interrupt.)
                                                  contiki-srf06-cc26xx.a(lpm.o)
                                                  contiki-srf06-cc26xx.a(cc26xx-uart.o)
                                                  contiki-srf06-cc26xx.a(contiki-watchdo)
                                                  contiki-srf06-cc26xx.a(soc-rtc.o)
                                                  contiki-srf06-cc26xx.a(clock.o)
                                                  contiki-srf06-cc26xx.a(board.o)
                                                  contiki-srf06-cc26xx.a(contiki-main.o)
NOROM_CPUdelay                                    contiki-srf06-cc26xx.a(cpu.o)
                                                  contiki-srf06-cc26xx.a(board-i2c.o)
                                                  contiki-srf06-cc26xx.a(mpu-9250-sensor)
NOROM_CPUprimask                                  contiki-srf06-cc26xx.a(cpu.o)
NOROM_ChipInfo_GetChipFamily                      contiki-srf06-cc26xx.a(chipinfo.o)
                                                  contiki-srf06-cc26xx.a(contiki-main.o)
                                                  obj_srf06-cc26xx/res-device.o
NOROM_ChipInfo_GetChipType                        contiki-srf06-cc26xx.a(chipinfo.o)
                                                  contiki-srf06-cc26xx.a(rf-core.o)
NOROM_ChipInfo_GetHwRevision                      contiki-srf06-cc26xx.a(chipinfo.o)
NOROM_ChipInfo_GetPackageType                     contiki-srf06-cc26xx.a(chipinfo.o)
NOROM_ChipInfo_GetSupportedProtocol_BV            contiki-srf06-cc26xx.a(chipinfo.o)
                                                  contiki-srf06-cc26xx.a(rf-ble.o)
                                                  contiki-srf06-cc26xx.a(contiki-main.o)
                                                  obj_srf06-cc26xx/res-device.o
NOROM_DDI16BitRead                                contiki-srf06-cc26xx.a(ddi.o)
NOROM_DDI16BitWrite                               contiki-srf06-cc26xx.a(ddi.o)
NOROM_DDI16BitfieldRead                           contiki-srf06-cc26xx.a(ddi.o)
                                                  contiki-srf06-cc26xx.a(osc.o)
NOROM_DDI16BitfieldWrite                          contiki-srf06-cc26xx.a(ddi.o)
                                                  contiki-srf06-cc26xx.a(setup_rom.o)
                                                  contiki-srf06-cc26xx.a(osc.o)
                                                  contiki-srf06-cc26xx.a(oscillators.o)
NOROM_DDI32RegWrite                               contiki-srf06-cc26xx.a(ddi.o)
                                                  contiki-srf06-cc26xx.a(setup_rom.o)
NOROM_OSCClockSourceGet                           contiki-srf06-cc26xx.a(osc.o)
                                                  contiki-srf06-cc26xx.a(setup_rom.o)
                                                  contiki-srf06-cc26xx.a(sys_ctrl.o)
                                                  contiki-srf06-cc26xx.a(oscillators.o)
NOROM_OSCClockSourceSet                           contiki-srf06-cc26xx.a(osc.o)
                                                  contiki-srf06-cc26xx.a(setup_rom.o)
                                                  contiki-srf06-cc26xx.a(sys_ctrl.o)
                                                  contiki-srf06-cc26xx.a(oscillators.o)
NOROM_OSCHF_AttemptToSwitchToXosc                 contiki-srf06-cc26xx.a(osc.o)
NOROM_OSCHF_DebugGetCrystalAmplitude              contiki-srf06-cc26xx.a(osc.o)
NOROM_OSCHF_DebugGetExpectedAverageCrystalAmplitude contiki-srf06-cc26xx.a(osc.o)
NOROM_OSCHF_GetStartupTime                        contiki-srf06-cc26xx.a(osc.o)
NOROM_OSCHF_SwitchToRcOscTurnOffXosc              contiki-srf06-cc26xx.a(osc.o)
NOROM_OSCHF_TurnOnXosc                            contiki-srf06-cc26xx.a(osc.o)
NOROM_OSC_HPOSCRelativeFrequencyOffsetGet         contiki-srf06-cc26xx.a(osc.o)
NOROM_OSC_HPOSCRelativeFrequencyOffsetToRFCoreFormatConvert contiki-srf06-cc26xx.a(osc.o)
NOROM_PowerCtrlSourceSet                          contiki-srf06-cc26xx.a(pwr_ctrl.o)
                                                  contiki-srf06-cc26xx.a(lpm.o)
NOROM_SetupAfterColdResetWakeupFromShutDownCfg1   contiki-srf06-cc26xx.a(setup_rom.o)
                                                  contiki-srf06-cc26xx.a(setup.o)
NOROM_SetupAfterColdResetWakeupFromShutDownCfg2   contiki-srf06-cc26xx.a(setup_rom.o)
                                                  contiki-srf06-cc26xx.a(setup.o)
NOROM_SetupAfterColdResetWakeupFromShutDownCfg3   contiki-srf06-cc26xx.a(setup_rom.o)
                                                  contiki-srf06-cc26xx.a(setup.o)
NOROM_SetupGetTrimForAdcShModeEn                  contiki-srf06-cc26xx.a(setup_rom.o)
NOROM_SetupGetTrimForAdcShVbufEn                  contiki-srf06-cc26xx.a(setup_rom.o)
NOROM_SetupGetTrimForAmpcompCtrl                  contiki-srf06-cc26xx.a(setup_rom.o)
NOROM_SetupGetTrimForAmpcompTh1                   contiki-srf06-cc26xx.a(setup_rom.o)
NOROM_SetupGetTrimForAmpcompTh2                   contiki-srf06-cc26xx.a(setup_rom.o)
NOROM_SetupGetTrimForAnabypassValue1              contiki-srf06-cc26xx.a(setup_rom.o)
NOROM_SetupGetTrimForDblrLoopFilterResetVoltage   contiki-srf06-cc26xx.a(setup_rom.o)
NOROM_SetupGetTrimForRadcExtCfg                   contiki-srf06-cc26xx.a(setup_rom.o)
NOROM_SetupGetTrimForRcOscLfIBiasTrim             contiki-srf06-cc26xx.a(setup_rom.o)
NOROM_SetupGetTrimForRcOscLfRtuneCtuneTrim        contiki-srf06-cc26xx.a(setup_rom.o)
NOROM_SetupGetTrimForXoscHfCtl                    contiki-srf06-cc26xx.a(setup_rom.o)
NOROM_SetupGetTrimForXoscHfFastStart              contiki-srf06-cc26xx.a(setup_rom.o)
NOROM_SetupGetTrimForXoscHfIbiastherm             contiki-srf06-cc26xx.a(setup_rom.o)
NOROM_SetupGetTrimForXoscLfRegulatorAndCmirrwrRatio contiki-srf06-cc26xx.a(setup_rom.o)
NOROM_SetupSetAonRtcSubSecInc                     contiki-srf06-cc26xx.a(setup_rom.o)
NOROM_SetupSetCacheModeAccordingToCcfgSetting     contiki-srf06-cc26xx.a(setup_rom.o)
                                                  contiki-srf06-cc26xx.a(setup.o)
NOROM_SetupTrimDevice                             contiki-srf06-cc26xx.a(setup.o)
                                                  obj_srf06-cc26xx/startup_gcc.o
NOROM_SysCtrlAdjustRechargeAfterPowerDown         contiki-srf06-cc26xx.a(sys_ctrl.o)
                                                  contiki-srf06-cc26xx.a(lpm.o)
NOROM_SysCtrlPowerEverything                      contiki-srf06-cc26xx.a(sys_ctrl.o)
NOROM_SysCtrlResetSourceGet                       contiki-srf06-cc26xx.a(sys_ctrl.o)
NOROM_SysCtrlSetRechargeBeforePowerDown           contiki-srf06-cc26xx.a(sys_ctrl.o)
                                                  contiki-srf06-cc26xx.a(lpm.o)
NOROM_SysCtrl_DCDC_VoltageConditionalControl      contiki-srf06-cc26xx.a(sys_ctrl.o)
                                                  contiki-srf06-cc26xx.a(lpm.o)
NOROM_TRNGConfigure                               contiki-srf06-cc26xx.a(trng.o)
                                                  contiki-srf06-cc26xx.a(soc-trng.o)
NOROM_TRNGNumberGet                               contiki-srf06-cc26xx.a(trng.o)
NOROM_ThisCodeIsBuiltForCC26xxHwRev22AndLater_HaltIfViolated contiki-srf06-cc26xx.a(chipinfo.o)
                                                  contiki-srf06-cc26xx.a(setup.o)
NmiSR                                             obj_srf06-cc26xx/startup_gcc.o
PendSVIntHandler                                  obj_srf06-cc26xx/startup_gcc.o
RFCCPE0IntHandler                                 contiki-srf06-cc26xx.a(rf-core.o)
                                                  obj_srf06-cc26xx/startup_gcc.o
RFCCPE1IntHandler                                 contiki-srf06-cc26xx.a(rf-core.o)
                                                  obj_srf06-cc26xx/startup_gcc.o
RFCCmdAckIntHandler                               obj_srf06-cc26xx/startup_gcc.o
RFCHardwareIntHandler                             obj_srf06-cc26xx/startup_gcc.o
ResetISR                                          obj_srf06-cc26xx/startup_gcc.o
SSI0IntHandler                                    obj_srf06-cc26xx/startup_gcc.o
SSI1IntHandler                                    obj_srf06-cc26xx/startup_gcc.o
SVCallIntHandler                                  obj_srf06-cc26xx/startup_gcc.o
SWEvent0IntHandler                                obj_srf06-cc26xx/startup_gcc.o
SafeHapiAuxAdiSelect                              contiki-srf06-cc26xx.a(adi.o)
SafeHapiVoid                                      contiki-srf06-cc26xx.a(adi.o)
                                                  contiki-srf06-cc26xx.a(sys_ctrl.o)
                                                  contiki-srf06-cc26xx.a(osc.o)
                                                  contiki-srf06-cc26xx.a(oscillators.o)
SysTickIntHandler                                 obj_srf06-cc26xx/startup_gcc.o
TRNGIntHandler                                    contiki-srf06-cc26xx.a(soc-trng.o)
                                                  obj_srf06-cc26xx/startup_gcc.o
Timer0AIntHandler                                 obj_srf06-cc26xx/startup_gcc.o
Timer0BIntHandler                                 obj_srf06-cc26xx/startup_gcc.o
Timer1AIntHandler                                 obj_srf06-cc26xx/startup_gcc.o
Timer1BIntHandler                                 obj_srf06-cc26xx/startup_gcc.o
Timer2AIntHandler                                 obj_srf06-cc26xx/startup_gcc.o
Timer2BIntHandler                                 obj_srf06-cc26xx/startup_gcc.o
Timer3AIntHandler                                 obj_srf06-cc26xx/startup_gcc.o
Timer3BIntHandler                                 obj_srf06-cc26xx/startup_gcc.o
UART0IntHandler                                   contiki-srf06-cc26xx.a(cc26xx-uart.o)
                                                  obj_srf06-cc26xx/startup_gcc.o
UsageFaultIntHandler                              obj_srf06-cc26xx/startup_gcc.o
WatchdogIntHandler                                obj_srf06-cc26xx/startup_gcc.o
__adddf3                                          /usr/lib/gcc/arm-none-eabi/5.4.1/armv7-m/libgcc.a(_arm_addsubdf3.o)
__addsf3                                          /usr/lib/gcc/arm-none-eabi/5.4.1/armv7-m/libgcc.a(_arm_addsubsf3.o)
__aeabi_cdcmpeq                                   /usr/lib/gcc/arm-none-eabi/5.4.1/armv7-m/libgcc.a(_arm_cmpdf2.o)
__aeabi_cdcmple                                   /usr/lib/gcc/arm-none-eabi/5.4.1/armv7-m/libgcc.a(_arm_cmpdf2.o)
__aeabi_cdrcmple                                  /usr/lib/gcc/arm-none-eabi/5.4.1/armv7-m/libgcc.a(_arm_cmpdf2.o)
__aeabi_d2f                                       /usr/lib/gcc/arm-none-eabi/5.4.1/armv7-m/libgcc.a(_arm_truncdfsf2.o)
                                                  contiki-srf06-cc26xx.a(mpu-9250-sensor)
                                                  contiki-srf06-cc26xx.a(hdc-1000-sensor)
                                                  contiki-srf06-cc26xx.a(opt-3001-sensor)
__aeabi_dadd                                      /usr/lib/gcc/arm-none-eabi/5.4.1/armv7-m/libgcc.a(_arm_addsubdf3.o)
                                                  /usr/lib/gcc/arm-none-eabi/5.4.1/../../../arm-none-eabi/lib/armv7-m/libm.a(lib_a-s_scalbn.o)
                                                  /usr/lib/gcc/arm-none-eabi/5.4.1/../../../arm-none-eabi/lib/armv7-m/libm.a(lib_a-s_rint.o)
                                                  /usr/lib/gcc/arm-none-eabi/5.4.1/../../../arm-none-eabi/lib/armv7-m/libm.a(lib_a-e_sqrt.o)
                                                  /usr/lib/gcc/arm-none-eabi/5.4.1/../../../arm-none-eabi/lib/armv7-m/libm.a(lib_a-e_pow.o)
__aeabi_dcmpeq                                    /usr/lib/gcc/arm-none-eabi/5.4.1/armv7-m/libgcc.a(_arm_cmpdf2.o)
                                                  /usr/lib/gcc/arm-none-eabi/5.4.1/../../../arm-none-eabi/lib/armv7-m/libm.a(lib_a-w_pow.o)
__aeabi_dcmpge                                    /usr/lib/gcc/arm-none-eabi/5.4.1/armv7-m/libgcc.a(_arm_cmpdf2.o)
__aeabi_dcmpgt                                    /usr/lib/gcc/arm-none-eabi/5.4.1/armv7-m/libgcc.a(_arm_cmpdf2.o)
                                                  /usr/lib/gcc/arm-none-eabi/5.4.1/../../../arm-none-eabi/lib/armv7-m/libm.a(lib_a-e_pow.o)
__aeabi_dcmple                                    /usr/lib/gcc/arm-none-eabi/5.4.1/armv7-m/libgcc.a(_arm_cmpdf2.o)
                                                  /usr/lib/gcc/arm-none-eabi/5.4.1/../../../arm-none-eabi/lib/armv7-m/libm.a(lib_a-e_pow.o)
__aeabi_dcmplt                                    /usr/lib/gcc/arm-none-eabi/5.4.1/armv7-m/libgcc.a(_arm_cmpdf2.o)
                                                  /usr/lib/gcc/arm-none-eabi/5.4.1/../../../arm-none-eabi/lib/armv7-m/libm.a(lib_a-w_pow.o)
__aeabi_dcmpun                                    /usr/lib/gcc/arm-none-eabi/5.4.1/armv7-m/libgcc.a(_arm_unorddf2.o)
                                                  /usr/lib/gcc/arm-none-eabi/5.4.1/../../../arm-none-eabi/lib/armv7-m/libm.a(lib_a-w_pow.o)
__aeabi_ddiv                                      /usr/lib/gcc/arm-none-eabi/5.4.1/armv7-m/libgcc.a(_arm_muldivdf3.o)
                                                  /usr/lib/gcc/arm-none-eabi/5.4.1/../../../arm-none-eabi/lib/armv7-m/libm.a(lib_a-e_sqrt.o)
                                                  /usr/lib/gcc/arm-none-eabi/5.4.1/../../../arm-none-eabi/lib/armv7-m/libm.a(lib_a-e_pow.o)
                                                  /usr/lib/gcc/arm-none-eabi/5.4.1/../../../arm-none-eabi/lib/armv7-m/libm.a(lib_a-w_pow.o)
                                                  contiki-srf06-cc26xx.a(mpu-9250-sensor)
__aeabi_dmul                                      /usr/lib/gcc/arm-none-eabi/5.4.1/armv7-m/libgcc.a(_arm_muldivdf3.o)
                                                  /usr/lib/gcc/arm-none-eabi/5.4.1/../../../arm-none-eabi/lib/armv7-m/libm.a(lib_a-s_scalbn.o)
                                                  /usr/lib/gcc/arm-none-eabi/5.4.1/../../../arm-none-eabi/lib/armv7-m/libm.a(lib_a-e_sqrt.o)
                                                  /usr/lib/gcc/arm-none-eabi/5.4.1/../../../arm-none-eabi/lib/armv7-m/libm.a(lib_a-e_pow.o)
                                                  /usr/lib/gcc/arm-none-eabi/5.4.1/../../../arm-none-eabi/lib/armv7-m/libm.a(lib_a-w_pow.o)
                                                  contiki-srf06-cc26xx.a(mpu-9250-sensor)
                                                  contiki-srf06-cc26xx.a(hdc-1000-sensor)
                                                  contiki-srf06-cc26xx.a(opt-3001-sensor)
__aeabi_drsub                                     /usr/lib/gcc/arm-none-eabi/5.4.1/armv7-m/libgcc.a(_arm_addsubdf3.o)
__aeabi_dsub                                      /usr/lib/gcc/arm-none-eabi/5.4.1/armv7-m/libgcc.a(_arm_addsubdf3.o)
                                                  /usr/lib/gcc/arm-none-eabi/5.4.1/../../../arm-none-eabi/lib/armv7-m/libm.a(lib_a-s_rint.o)
                                                  /usr/lib/gcc/arm-none-eabi/5.4.1/../../../arm-none-eabi/lib/armv7-m/libm.a(lib_a-e_sqrt.o)
                                                  /usr/lib/gcc/arm-none-eabi/5.4.1/../../../arm-none-eabi/lib/armv7-m/libm.a(lib_a-e_pow.o)
                                                  contiki-srf06-cc26xx.a(hdc-1000-sensor)
__aeabi_f2d                                       /usr/lib/gcc/arm-none-eabi/5.4.1/armv7-m/libgcc.a(_arm_addsubdf3.o)
__aeabi_f2iz                                      /usr/lib/gcc/arm-none-eabi/5.4.1/armv7-m/libgcc.a(_arm_fixsfsi.o)
                                                  contiki-srf06-cc26xx.a(mpu-9250-sensor)
                                                  contiki-srf06-cc26xx.a(hdc-1000-sensor)
                                                  contiki-srf06-cc26xx.a(opt-3001-sensor)
                                                  contiki-srf06-cc26xx.a(tmp-007-sensor.)
__aeabi_fadd                                      /usr/lib/gcc/arm-none-eabi/5.4.1/armv7-m/libgcc.a(_arm_addsubsf3.o)
__aeabi_fdiv                                      /usr/lib/gcc/arm-none-eabi/5.4.1/armv7-m/libgcc.a(_arm_muldivsf3.o)
__aeabi_fmul                                      /usr/lib/gcc/arm-none-eabi/5.4.1/armv7-m/libgcc.a(_arm_muldivsf3.o)
                                                  contiki-srf06-cc26xx.a(mpu-9250-sensor)
                                                  contiki-srf06-cc26xx.a(hdc-1000-sensor)
                                                  contiki-srf06-cc26xx.a(opt-3001-sensor)
                                                  contiki-srf06-cc26xx.a(tmp-007-sensor.)
__aeabi_frsub                                     /usr/lib/gcc/arm-none-eabi/5.4.1/armv7-m/libgcc.a(_arm_addsubsf3.o)
__aeabi_fsub                                      /usr/lib/gcc/arm-none-eabi/5.4.1/armv7-m/libgcc.a(_arm_addsubsf3.o)
__aeabi_i2d                                       /usr/lib/gcc/arm-none-eabi/5.4.1/armv7-m/libgcc.a(_arm_addsubdf3.o)
                                                  /usr/lib/gcc/arm-none-eabi/5.4.1/../../../arm-none-eabi/lib/armv7-m/libm.a(lib_a-e_pow.o)
                                                  contiki-srf06-cc26xx.a(mpu-9250-sensor)
                                                  contiki-srf06-cc26xx.a(opt-3001-sensor)
__aeabi_i2f                                       /usr/lib/gcc/arm-none-eabi/5.4.1/armv7-m/libgcc.a(_arm_addsubsf3.o)
                                                  contiki-srf06-cc26xx.a(tmp-007-sensor.)
__aeabi_idiv0                                     /usr/lib/gcc/arm-none-eabi/5.4.1/armv7-m/libgcc.a(_dvmd_tls.o)
__aeabi_l2d                                       /usr/lib/gcc/arm-none-eabi/5.4.1/armv7-m/libgcc.a(_arm_addsubdf3.o)
__aeabi_l2f                                       /usr/lib/gcc/arm-none-eabi/5.4.1/armv7-m/libgcc.a(_arm_addsubsf3.o)
__aeabi_ldiv0                                     /usr/lib/gcc/arm-none-eabi/5.4.1/armv7-m/libgcc.a(_dvmd_tls.o)
                                                  /usr/lib/gcc/arm-none-eabi/5.4.1/armv7-m/libgcc.a(_aeabi_uldivmod.o)
__aeabi_ui2d                                      /usr/lib/gcc/arm-none-eabi/5.4.1/armv7-m/libgcc.a(_arm_addsubdf3.o)
                                                  contiki-srf06-cc26xx.a(hdc-1000-sensor)
                                                  contiki-srf06-cc26xx.a(opt-3001-sensor)
__aeabi_ui2f                                      /usr/lib/gcc/arm-none-eabi/5.4.1/armv7-m/libgcc.a(_arm_addsubsf3.o)
__aeabi_ul2d                                      /usr/lib/gcc/arm-none-eabi/5.4.1/armv7-m/libgcc.a(_arm_addsubdf3.o)
__aeabi_ul2f                                      /usr/lib/gcc/arm-none-eabi/5.4.1/armv7-m/libgcc.a(_arm_addsubsf3.o)
__aeabi_uldivmod                                  /usr/lib/gcc/arm-none-eabi/5.4.1/armv7-m/libgcc.a(_aeabi_uldivmod.o)
                                                  contiki-srf06-cc26xx.a(strformat.o)
                                                  contiki-srf06-cc26xx.a(ieee-mode.o)
__ccfg                                            obj_srf06-cc26xx/ccfg.o
__cmpdf2                                          /usr/lib/gcc/arm-none-eabi/5.4.1/armv7-m/libgcc.a(_arm_cmpdf2.o)
__ctype_ptr__                                     /usr/lib/gcc/arm-none-eabi/5.4.1/../../../arm-none-eabi/lib/armv7-m/libc.a(lib_a-ctype_.o)
                                                  /usr/lib/gcc/arm-none-eabi/5.4.1/../../../arm-none-eabi/lib/armv7-m/libc.a(lib_a-strtol.o)
                                                  /usr/lib/gcc/arm-none-eabi/5.4.1/../../../arm-none-eabi/lib/armv7-m/libc.a(lib_a-strncasecmp.o)
                                                  obj_srf06-cc26xx/httpd-simple.o
__divdf3                                          /usr/lib/gcc/arm-none-eabi/5.4.1/armv7-m/libgcc.a(_arm_muldivdf3.o)
__divsf3                                          /usr/lib/gcc/arm-none-eabi/5.4.1/armv7-m/libgcc.a(_arm_muldivsf3.o)
__eqdf2                                           /usr/lib/gcc/arm-none-eabi/5.4.1/armv7-m/libgcc.a(_arm_cmpdf2.o)
__errno                                           /usr/lib/gcc/arm-none-eabi/5.4.1/../../../arm-none-eabi/lib/armv7-m/libc.a(lib_a-errno.o)
                                                  /usr/lib/gcc/arm-none-eabi/5.4.1/../../../arm-none-eabi/lib/armv7-m/libm.a(lib_a-w_pow.o)
__extendsfdf2                                     /usr/lib/gcc/arm-none-eabi/5.4.1/armv7-m/libgcc.a(_arm_addsubdf3.o)
__fdlib_version                                   /usr/lib/gcc/arm-none-eabi/5.4.1/../../../arm-none-eabi/lib/armv7-m/libm.a(lib_a-s_lib_ver.o)
                                                  /usr/lib/gcc/arm-none-eabi/5.4.1/../../../arm-none-eabi/lib/armv7-m/libm.a(lib_a-w_pow.o)
__fixsfsi                                         /usr/lib/gcc/arm-none-eabi/5.4.1/armv7-m/libgcc.a(_arm_fixsfsi.o)
__floatdidf                                       /usr/lib/gcc/arm-none-eabi/5.4.1/armv7-m/libgcc.a(_arm_addsubdf3.o)
__floatdisf                                       /usr/lib/gcc/arm-none-eabi/5.4.1/armv7-m/libgcc.a(_arm_addsubsf3.o)
__floatsidf                                       /usr/lib/gcc/arm-none-eabi/5.4.1/armv7-m/libgcc.a(_arm_addsubdf3.o)
__floatsisf                                       /usr/lib/gcc/arm-none-eabi/5.4.1/armv7-m/libgcc.a(_arm_addsubsf3.o)
__floatundidf                                     /usr/lib/gcc/arm-none-eabi/5.4.1/armv7-m/libgcc.a(_arm_addsubdf3.o)
__floatundisf                                     /usr/lib/gcc/arm-none-eabi/5.4.1/armv7-m/libgcc.a(_arm_addsubsf3.o)
__floatunsidf                                     /usr/lib/gcc/arm-none-eabi/5.4.1/armv7-m/libgcc.a(_arm_addsubdf3.o)
__floatunsisf                                     /usr/lib/gcc/arm-none-eabi/5.4.1/armv7-m/libgcc.a(_arm_addsubsf3.o)
__gedf2                                           /usr/lib/gcc/arm-none-eabi/5.4.1/armv7-m/libgcc.a(_arm_cmpdf2.o)
__gtdf2                                           /usr/lib/gcc/arm-none-eabi/5.4.1/armv7-m/libgcc.a(_arm_cmpdf2.o)
__ieee754_pow                                     /usr/lib/gcc/arm-none-eabi/5.4.1/../../../arm-none-eabi/lib/armv7-m/libm.a(lib_a-e_pow.o)
                                                  /usr/lib/gcc/arm-none-eabi/5.4.1/../../../arm-none-eabi/lib/armv7-m/libm.a(lib_a-w_pow.o)
__ieee754_sqrt                                    /usr/lib/gcc/arm-none-eabi/5.4.1/../../../arm-none-eabi/lib/armv7-m/libm.a(lib_a-e_sqrt.o)
                                                  /usr/lib/gcc/arm-none-eabi/5.4.1/../../../arm-none-eabi/lib/armv7-m/libm.a(lib_a-e_pow.o)
__ledf2                                           /usr/lib/gcc/arm-none-eabi/5.4.1/armv7-m/libgcc.a(_arm_cmpdf2.o)
__ltdf2                                           /usr/lib/gcc/arm-none-eabi/5.4.1/armv7-m/libgcc.a(_arm_cmpdf2.o)
__muldf3                                          /usr/lib/gcc/arm-none-eabi/5.4.1/armv7-m/libgcc.a(_arm_muldivdf3.o)
__mulsf3                                          /usr/lib/gcc/arm-none-eabi/5.4.1/armv7-m/libgcc.a(_arm_muldivsf3.o)
__nedf2                                           /usr/lib/gcc/arm-none-eabi/5.4.1/armv7-m/libgcc.a(_arm_cmpdf2.o)
__subdf3                                          /usr/lib/gcc/arm-none-eabi/5.4.1/armv7-m/libgcc.a(_arm_addsubdf3.o)
__subsf3                                          /usr/lib/gcc/arm-none-eabi/5.4.1/armv7-m/libgcc.a(_arm_addsubsf3.o)
__truncdfsf2                                      /usr/lib/gcc/arm-none-eabi/5.4.1/armv7-m/libgcc.a(_arm_truncdfsf2.o)
__udivmoddi4                                      /usr/lib/gcc/arm-none-eabi/5.4.1/armv7-m/libgcc.a(_udivmoddi4.o)
                                                  /usr/lib/gcc/arm-none-eabi/5.4.1/armv7-m/libgcc.a(_aeabi_uldivmod.o)
__unorddf2                                        /usr/lib/gcc/arm-none-eabi/5.4.1/armv7-m/libgcc.a(_arm_unorddf2.o)
_atoi_r                                           /usr/lib/gcc/arm-none-eabi/5.4.1/../../../arm-none-eabi/lib/armv7-m/libc.a(lib_a-atoi.o)
_bss                                              obj_srf06-cc26xx/startup_gcc.o
_ctype_                                           /usr/lib/gcc/arm-none-eabi/5.4.1/../../../arm-none-eabi/lib/armv7-m/libc.a(lib_a-ctype_.o)
_data                                             obj_srf06-cc26xx/startup_gcc.o
_ebss                                             obj_srf06-cc26xx/startup_gcc.o
_edata                                            obj_srf06-cc26xx/startup_gcc.o
_estack                                           obj_srf06-cc26xx/startup_gcc.o
_etext                                            obj_srf06-cc26xx/startup_gcc.o
_global_impure_ptr                                /usr/lib/gcc/arm-none-eabi/5.4.1/../../../arm-none-eabi/lib/armv7-m/libc.a(lib_a-impure.o)
_impure_ptr                                       /usr/lib/gcc/arm-none-eabi/5.4.1/../../../arm-none-eabi/lib/armv7-m/libc.a(lib_a-impure.o)
                                                  /usr/lib/gcc/arm-none-eabi/5.4.1/../../../arm-none-eabi/lib/armv7-m/libc.a(lib_a-strtol.o)
                                                  /usr/lib/gcc/arm-none-eabi/5.4.1/../../../arm-none-eabi/lib/armv7-m/libc.a(lib_a-errno.o)
_strtol_r                                         /usr/lib/gcc/arm-none-eabi/5.4.1/../../../arm-none-eabi/lib/armv7-m/libc.a(lib_a-strtol.o)
                                                  /usr/lib/gcc/arm-none-eabi/5.4.1/../../../arm-none-eabi/lib/armv7-m/libc.a(lib_a-atoi.o)
atoi                                              /usr/lib/gcc/arm-none-eabi/5.4.1/../../../arm-none-eabi/lib/armv7-m/libc.a(lib_a-atoi.o)
                                                  obj_srf06-cc26xx/httpd-simple.o
                                                  obj_srf06-cc26xx/mqtt-client.o
                                                  obj_srf06-cc26xx/net-uart.o
                                                  obj_srf06-cc26xx/res-ble-advd.o
                                                  cc26xx-web-demo.co
auth_token_handler                                obj_srf06-cc26xx/mqtt-client.o
autostart_exit                                    contiki-srf06-cc26xx.a(autostart.o)
autostart_processes                               cc26xx-web-demo.co
                                                  contiki-srf06-cc26xx.a(contiki-main.o)
autostart_start                                   contiki-srf06-cc26xx.a(autostart.o)
                                                  contiki-srf06-cc26xx.a(contiki-main.o)
aux_ctrl_power_down                               contiki-srf06-cc26xx.a(aux-ctrl.o)
                                                  contiki-srf06-cc26xx.a(lpm.o)
aux_ctrl_power_up                                 contiki-srf06-cc26xx.a(aux-ctrl.o)
                                                  contiki-srf06-cc26xx.a(lpm.o)
aux_ctrl_register_consumer                        contiki-srf06-cc26xx.a(aux-ctrl.o)
                                                  contiki-srf06-cc26xx.a(oscillators.o)
                                                  contiki-srf06-cc26xx.a(lpm.o)
aux_ctrl_unregister_consumer                      contiki-srf06-cc26xx.a(aux-ctrl.o)
                                                  contiki-srf06-cc26xx.a(oscillators.o)
batmon_sensor                                     contiki-srf06-cc26xx.a(batmon-sensor.o)
                                                  cc26xx-web-demo.co
batmon_temp_reading                               cc26xx-web-demo.co
batmon_timer                                      cc26xx-web-demo.co
batmon_volt_reading                               cc26xx-web-demo.co
bmp_280_sensor                                    contiki-srf06-cc26xx.a(bmp-280-sensor.)
                                                  contiki-srf06-cc26xx.a(board.o)
                                                  contiki-srf06-cc26xx.a(sensortag-senso)
                                                  cc26xx-web-demo.co
bmp_pres_reading                                  cc26xx-web-demo.co
bmp_temp_reading                                  cc26xx-web-demo.co
bmp_timer                                         cc26xx-web-demo.co
board_i2c_read                                    contiki-srf06-cc26xx.a(board-i2c.o)
                                                  contiki-srf06-cc26xx.a(hdc-1000-sensor)
board_i2c_select                                  contiki-srf06-cc26xx.a(board-i2c.o)
                                                  contiki-srf06-cc26xx.a(mpu-9250-sensor)
                                                  contiki-srf06-cc26xx.a(hdc-1000-sensor)
                                                  contiki-srf06-cc26xx.a(opt-3001-sensor)
                                                  contiki-srf06-cc26xx.a(tmp-007-sensor.)
                                                  contiki-srf06-cc26xx.a(bmp-280-sensor.)
board_i2c_shutdown                                contiki-srf06-cc26xx.a(board-i2c.o)
                                                  contiki-srf06-cc26xx.a(board.o)
board_i2c_wakeup                                  contiki-srf06-cc26xx.a(board-i2c.o)
                                                  contiki-srf06-cc26xx.a(board.o)
board_i2c_write                                   contiki-srf06-cc26xx.a(board-i2c.o)
                                                  contiki-srf06-cc26xx.a(sensor-common.o)
board_i2c_write_read                              contiki-srf06-cc26xx.a(board-i2c.o)
                                                  contiki-srf06-cc26xx.a(sensor-common.o)
board_i2c_write_single                            contiki-srf06-cc26xx.a(board-i2c.o)
                                                  contiki-srf06-cc26xx.a(hdc-1000-sensor)
board_init                                        contiki-srf06-cc26xx.a(board.o)
                                                  contiki-srf06-cc26xx.a(contiki-main.o)
board_spi_close                                   contiki-srf06-cc26xx.a(board-spi.o)
                                                  contiki-srf06-cc26xx.a(ext-flash.o)
board_spi_flush                                   contiki-srf06-cc26xx.a(board-spi.o)
                                                  contiki-srf06-cc26xx.a(ext-flash.o)
board_spi_open                                    contiki-srf06-cc26xx.a(board-spi.o)
                                                  contiki-srf06-cc26xx.a(ext-flash.o)
board_spi_read                                    contiki-srf06-cc26xx.a(board-spi.o)
                                                  contiki-srf06-cc26xx.a(ext-flash.o)
board_spi_write                                   contiki-srf06-cc26xx.a(board-spi.o)
                                                  contiki-srf06-cc26xx.a(ext-flash.o)
button_left_sensor                                contiki-srf06-cc26xx.a(button-sensor.o)
                                                  contiki-srf06-cc26xx.a(sensortag-senso)
                                                  cc26xx-web-demo.co
button_right_sensor                               contiki-srf06-cc26xx.a(button-sensor.o)
                                                  contiki-srf06-cc26xx.a(sensortag-senso)
buzzer_init                                       contiki-srf06-cc26xx.a(buzzer.o)
                                                  contiki-srf06-cc26xx.a(board.o)
buzzer_start                                      contiki-srf06-cc26xx.a(buzzer.o)
                                                  obj_srf06-cc26xx/mqtt-client.o
buzzer_state                                      contiki-srf06-cc26xx.a(buzzer.o)
buzzer_stop                                       contiki-srf06-cc26xx.a(buzzer.o)
                                                  contiki-srf06-cc26xx.a(board.o)
                                                  obj_srf06-cc26xx/mqtt-client.o
cc26xx_uart_busy                                  contiki-srf06-cc26xx.a(cc26xx-uart.o)
                                                  contiki-srf06-cc26xx.a(putchar.o)
cc26xx_uart_init                                  contiki-srf06-cc26xx.a(cc26xx-uart.o)
                                                  contiki-srf06-cc26xx.a(contiki-main.o)
cc26xx_uart_set_input                             contiki-srf06-cc26xx.a(cc26xx-uart.o)
                                                  obj_srf06-cc26xx/net-uart.o
cc26xx_uart_write_byte                            contiki-srf06-cc26xx.a(cc26xx-uart.o)
                                                  contiki-srf06-cc26xx.a(putchar.o)
cc26xx_web_demo_config                            cc26xx-web-demo.co
                                                  obj_srf06-cc26xx/httpd-simple.o
                                                  obj_srf06-cc26xx/mqtt-client.o
                                                  obj_srf06-cc26xx/net-uart.o
cc26xx_web_demo_config_loaded_event               cc26xx-web-demo.co
                                                  obj_srf06-cc26xx/net-uart.o
cc26xx_web_demo_ipaddr_sprintf                    cc26xx-web-demo.co
                                                  obj_srf06-cc26xx/httpd-simple.o
                                                  obj_srf06-cc26xx/mqtt-client.o
                                                  obj_srf06-cc26xx/net-uart.o
                                                  obj_srf06-cc26xx/res-net.o
cc26xx_web_demo_load_config_defaults              cc26xx-web-demo.co
                                                  obj_srf06-cc26xx/mqtt-client.o
                                                  obj_srf06-cc26xx/net-uart.o
cc26xx_web_demo_process                           cc26xx-web-demo.co
cc26xx_web_demo_publish_event                     cc26xx-web-demo.co
                                                  obj_srf06-cc26xx/mqtt-client.o
cc26xx_web_demo_restore_defaults                  cc26xx-web-demo.co
                                                  obj_srf06-cc26xx/res-device.o
cc26xx_web_demo_sensor_first                      cc26xx-web-demo.co
                                                  obj_srf06-cc26xx/httpd-simple.o
                                                  obj_srf06-cc26xx/mqtt-client.o
cc26xx_web_demo_sensor_lookup                     cc26xx-web-demo.co
                                                  obj_srf06-cc26xx/res-sensors.o
cetic_6lbr_client_process                         obj_srf06-cc26xx/cetic-6lbr-client.o
                                                  cc26xx-web-demo.co
clock_delay                                       contiki-srf06-cc26xx.a(clock.o)
                                                  contiki-srf06-cc26xx.a(leds.o)
clock_delay_usec                                  contiki-srf06-cc26xx.a(clock.o)
clock_init                                        contiki-srf06-cc26xx.a(clock.o)
                                                  contiki-srf06-cc26xx.a(contiki-main.o)
clock_seconds                                     contiki-srf06-cc26xx.a(clock.o)
                                                  contiki-srf06-cc26xx.a(stimer.o)
                                                  obj_srf06-cc26xx/httpd-simple.o
                                                  obj_srf06-cc26xx/mqtt-client.o
                                                  obj_srf06-cc26xx/res-device.o
clock_time                                        contiki-srf06-cc26xx.a(clock.o)
                                                  contiki-srf06-cc26xx.a(mac-sequence.o)
                                                  contiki-srf06-cc26xx.a(link-stats.o)
                                                  contiki-srf06-cc26xx.a(rpl-timers.o)
                                                  contiki-srf06-cc26xx.a(rpl-dag.o)
                                                  contiki-srf06-cc26xx.a(timer.o)
                                                  contiki-srf06-cc26xx.a(etimer.o)
                                                  contiki-srf06-cc26xx.a(lpm.o)
                                                  contiki-srf06-cc26xx.a(button-sensor.o)
clock_update                                      contiki-srf06-cc26xx.a(clock.o)
                                                  contiki-srf06-cc26xx.a(lpm.o)
                                                  contiki-srf06-cc26xx.a(soc-rtc.o)
clock_wait                                        contiki-srf06-cc26xx.a(clock.o)
cmd_type_handler                                  obj_srf06-cc26xx/mqtt-client.o
coap_blocking_request                             contiki-srf06-cc26xx.a(er-coap-engine.)
coap_blocking_request_callback                    contiki-srf06-cc26xx.a(er-coap-engine.)
coap_check_transactions                           contiki-srf06-cc26xx.a(er-coap-transac)
                                                  contiki-srf06-cc26xx.a(er-coap-engine.)
coap_clear_transaction                            contiki-srf06-cc26xx.a(er-coap-transac)
                                                  contiki-srf06-cc26xx.a(er-coap-engine.)
coap_engine                                       contiki-srf06-cc26xx.a(er-coap-engine.)
coap_error_message                                contiki-srf06-cc26xx.a(er-coap.o)
                                                  contiki-srf06-cc26xx.a(er-coap-engine.)
coap_get_header_accept                            contiki-srf06-cc26xx.a(er-coap.o)
                                                  contiki-srf06-cc26xx.a(er-coap-engine.)
coap_get_header_block1                            contiki-srf06-cc26xx.a(er-coap.o)
coap_get_header_block2                            contiki-srf06-cc26xx.a(er-coap.o)
                                                  contiki-srf06-cc26xx.a(er-coap-engine.)
coap_get_header_content_format                    contiki-srf06-cc26xx.a(er-coap.o)
                                                  contiki-srf06-cc26xx.a(er-coap-engine.)
coap_get_header_etag                              contiki-srf06-cc26xx.a(er-coap.o)
coap_get_header_if_match                          contiki-srf06-cc26xx.a(er-coap.o)
                                                  contiki-srf06-cc26xx.a(er-coap-engine.)
coap_get_header_if_none_match                     contiki-srf06-cc26xx.a(er-coap.o)
                                                  contiki-srf06-cc26xx.a(er-coap-engine.)
coap_get_header_location_path                     contiki-srf06-cc26xx.a(er-coap.o)
coap_get_header_location_query                    contiki-srf06-cc26xx.a(er-coap.o)
coap_get_header_max_age                           contiki-srf06-cc26xx.a(er-coap.o)
                                                  contiki-srf06-cc26xx.a(er-coap-engine.)
coap_get_header_observe                           contiki-srf06-cc26xx.a(er-coap.o)
coap_get_header_proxy_uri                         contiki-srf06-cc26xx.a(er-coap.o)
coap_get_header_size1                             contiki-srf06-cc26xx.a(er-coap.o)
coap_get_header_size2                             contiki-srf06-cc26xx.a(er-coap.o)
                                                  contiki-srf06-cc26xx.a(er-coap-engine.)
coap_get_header_uri_host                          contiki-srf06-cc26xx.a(er-coap.o)
                                                  contiki-srf06-cc26xx.a(er-coap-engine.)
coap_get_header_uri_path                          contiki-srf06-cc26xx.a(er-coap.o)
                                                  contiki-srf06-cc26xx.a(er-coap-engine.)
coap_get_header_uri_query                         contiki-srf06-cc26xx.a(er-coap.o)
                                                  contiki-srf06-cc26xx.a(er-coap-engine.)
coap_get_mid                                      contiki-srf06-cc26xx.a(er-coap.o)
                                                  contiki-srf06-cc26xx.a(er-coap-observe)
                                                  contiki-srf06-cc26xx.a(er-coap-engine.)
coap_get_payload                                  contiki-srf06-cc26xx.a(er-coap.o)
                                                  contiki-srf06-cc26xx.a(er-coap-engine.)
coap_get_post_variable                            contiki-srf06-cc26xx.a(er-coap.o)
                                                  contiki-srf06-cc26xx.a(er-coap-engine.)
coap_get_query_variable                           contiki-srf06-cc26xx.a(er-coap.o)
                                                  contiki-srf06-cc26xx.a(er-coap-engine.)
coap_get_rest_method                              contiki-srf06-cc26xx.a(er-coap-engine.)
coap_get_transaction_by_mid                       contiki-srf06-cc26xx.a(er-coap-transac)
                                                  contiki-srf06-cc26xx.a(er-coap-engine.)
coap_init_connection                              contiki-srf06-cc26xx.a(er-coap.o)
                                                  contiki-srf06-cc26xx.a(er-coap-engine.)
coap_init_engine                                  contiki-srf06-cc26xx.a(er-coap-engine.)
coap_init_message                                 contiki-srf06-cc26xx.a(er-coap.o)
                                                  contiki-srf06-cc26xx.a(er-coap-observe)
                                                  contiki-srf06-cc26xx.a(er-coap-engine.)
coap_new_transaction                              contiki-srf06-cc26xx.a(er-coap-transac)
                                                  contiki-srf06-cc26xx.a(er-coap-observe)
                                                  contiki-srf06-cc26xx.a(er-coap-engine.)
coap_notify_observers                             contiki-srf06-cc26xx.a(er-coap-observe)
                                                  contiki-srf06-cc26xx.a(er-coap-engine.)
coap_notify_observers_sub                         contiki-srf06-cc26xx.a(er-coap-observe)
coap_observe_handler                              contiki-srf06-cc26xx.a(er-coap-observe)
                                                  contiki-srf06-cc26xx.a(er-coap-engine.)
coap_parse_message                                contiki-srf06-cc26xx.a(er-coap.o)
                                                  contiki-srf06-cc26xx.a(er-coap-engine.)
coap_register_as_transaction_handler              contiki-srf06-cc26xx.a(er-coap-transac)
                                                  contiki-srf06-cc26xx.a(er-coap-engine.)
coap_remove_observer                              contiki-srf06-cc26xx.a(er-coap-observe)
coap_remove_observer_by_client                    contiki-srf06-cc26xx.a(er-coap-observe)
                                                  contiki-srf06-cc26xx.a(er-coap-transac)
coap_remove_observer_by_mid                       contiki-srf06-cc26xx.a(er-coap-observe)
                                                  contiki-srf06-cc26xx.a(er-coap-engine.)
coap_remove_observer_by_token                     contiki-srf06-cc26xx.a(er-coap-observe)
coap_remove_observer_by_uri                       contiki-srf06-cc26xx.a(er-coap-observe)
coap_rest_implementation                          contiki-srf06-cc26xx.a(er-coap-engine.)
                                                  contiki-srf06-cc26xx.a(rest-engine.o)
                                                  obj_srf06-cc26xx/res-net.o
                                                  obj_srf06-cc26xx/res-ble-advd.o
                                                  obj_srf06-cc26xx/res-sensors.o
                                                  obj_srf06-cc26xx/res-device.o
                                                  obj_srf06-cc26xx/res-leds.o
coap_send_message                                 contiki-srf06-cc26xx.a(er-coap.o)
                                                  contiki-srf06-cc26xx.a(er-coap-transac)
                                                  contiki-srf06-cc26xx.a(er-coap-engine.)
coap_send_transaction                             contiki-srf06-cc26xx.a(er-coap-transac)
                                                  contiki-srf06-cc26xx.a(er-coap-observe)
                                                  contiki-srf06-cc26xx.a(er-coap-engine.)
coap_serialize_message                            contiki-srf06-cc26xx.a(er-coap.o)
                                                  contiki-srf06-cc26xx.a(er-coap-observe)
                                                  contiki-srf06-cc26xx.a(er-coap-engine.)
coap_server_not_found_msg                         obj_srf06-cc26xx/coap-server.o
                                                  obj_srf06-cc26xx/res-sensors.o
coap_server_process                               obj_srf06-cc26xx/coap-server.o
                                                  cc26xx-web-demo.co
coap_server_supported_msg                         obj_srf06-cc26xx/coap-server.o
                                                  obj_srf06-cc26xx/res-net.o
                                                  obj_srf06-cc26xx/res-sensors.o
                                                  obj_srf06-cc26xx/res-device.o
coap_set_header_accept                            contiki-srf06-cc26xx.a(er-coap.o)
coap_set_header_block1                            contiki-srf06-cc26xx.a(er-coap.o)
coap_set_header_block2                            contiki-srf06-cc26xx.a(er-coap.o)
                                                  contiki-srf06-cc26xx.a(er-coap-engine.)
coap_set_header_content_format                    contiki-srf06-cc26xx.a(er-coap.o)
                                                  contiki-srf06-cc26xx.a(er-coap-res-wel)
                                                  contiki-srf06-cc26xx.a(er-coap-engine.)
coap_set_header_etag                              contiki-srf06-cc26xx.a(er-coap.o)
                                                  contiki-srf06-cc26xx.a(er-coap-engine.)
coap_set_header_if_match                          contiki-srf06-cc26xx.a(er-coap.o)
coap_set_header_if_none_match                     contiki-srf06-cc26xx.a(er-coap.o)
coap_set_header_location_path                     contiki-srf06-cc26xx.a(er-coap.o)
                                                  contiki-srf06-cc26xx.a(er-coap-engine.)
coap_set_header_location_query                    contiki-srf06-cc26xx.a(er-coap.o)
coap_set_header_max_age                           contiki-srf06-cc26xx.a(er-coap.o)
                                                  contiki-srf06-cc26xx.a(er-coap-engine.)
coap_set_header_observe                           contiki-srf06-cc26xx.a(er-coap.o)
                                                  contiki-srf06-cc26xx.a(er-coap-observe)
coap_set_header_proxy_uri                         contiki-srf06-cc26xx.a(er-coap.o)
coap_set_header_size1                             contiki-srf06-cc26xx.a(er-coap.o)
coap_set_header_size2                             contiki-srf06-cc26xx.a(er-coap.o)
                                                  contiki-srf06-cc26xx.a(er-coap-engine.)
coap_set_header_uri_host                          contiki-srf06-cc26xx.a(er-coap.o)
coap_set_header_uri_path                          contiki-srf06-cc26xx.a(er-coap.o)
                                                  contiki-srf06-cc26xx.a(er-coap-observe)
coap_set_header_uri_query                         contiki-srf06-cc26xx.a(er-coap.o)
coap_set_payload                                  contiki-srf06-cc26xx.a(er-coap.o)
                                                  contiki-srf06-cc26xx.a(er-coap-res-wel)
                                                  contiki-srf06-cc26xx.a(er-coap-observe)
                                                  contiki-srf06-cc26xx.a(er-coap-engine.)
coap_set_service_callback                         contiki-srf06-cc26xx.a(er-coap-engine.)
coap_set_status_code                              contiki-srf06-cc26xx.a(er-coap.o)
                                                  contiki-srf06-cc26xx.a(er-coap-res-wel)
                                                  contiki-srf06-cc26xx.a(er-coap-engine.)
coap_set_token                                    contiki-srf06-cc26xx.a(er-coap.o)
                                                  contiki-srf06-cc26xx.a(er-coap-observe)
                                                  contiki-srf06-cc26xx.a(er-coap-engine.)
conf                                              obj_srf06-cc26xx/mqtt-client.o
contikimac_debug_print                            contiki-srf06-cc26xx.a(contikimac.o)
contikimac_driver                                 contiki-srf06-cc26xx.a(contikimac.o)
                                                  contiki-srf06-cc26xx.a(rf-core.o)
                                                  contiki-srf06-cc26xx.a(csma.o)
                                                  contiki-srf06-cc26xx.a(netstack.o)
                                                  contiki-srf06-cc26xx.a(contiki-main.o)
copysign                                          /usr/lib/gcc/arm-none-eabi/5.4.1/../../../arm-none-eabi/lib/armv7-m/libm.a(lib_a-s_copysign.o)
                                                  /usr/lib/gcc/arm-none-eabi/5.4.1/../../../arm-none-eabi/lib/armv7-m/libm.a(lib_a-s_scalbn.o)
csma_driver                                       contiki-srf06-cc26xx.a(csma.o)
                                                  contiki-srf06-cc26xx.a(nullsec.o)
                                                  contiki-srf06-cc26xx.a(contikimac.o)
                                                  contiki-srf06-cc26xx.a(netstack.o)
                                                  contiki-srf06-cc26xx.a(contiki-main.o)
ctimer_expired                                    contiki-srf06-cc26xx.a(ctimer.o)
ctimer_init                                       contiki-srf06-cc26xx.a(ctimer.o)
                                                  contiki-srf06-cc26xx.a(contiki-main.o)
ctimer_process                                    contiki-srf06-cc26xx.a(ctimer.o)
ctimer_reset                                      contiki-srf06-cc26xx.a(ctimer.o)
                                                  contiki-srf06-cc26xx.a(link-stats.o)
                                                  contiki-srf06-cc26xx.a(rpl-timers.o)
ctimer_restart                                    contiki-srf06-cc26xx.a(ctimer.o)
                                                  contiki-srf06-cc26xx.a(rpl-nbr-policy.)
                                                  contiki-srf06-cc26xx.a(mqtt.o)
ctimer_set                                        contiki-srf06-cc26xx.a(ctimer.o)
                                                  contiki-srf06-cc26xx.a(rpl-nbr-policy.)
                                                  contiki-srf06-cc26xx.a(contikimac.o)
                                                  contiki-srf06-cc26xx.a(csma.o)
                                                  contiki-srf06-cc26xx.a(link-stats.o)
                                                  contiki-srf06-cc26xx.a(rpl-timers.o)
                                                  contiki-srf06-cc26xx.a(ieee-mode.o)
                                                  contiki-srf06-cc26xx.a(mpu-9250-sensor)
                                                  contiki-srf06-cc26xx.a(hdc-1000-sensor)
                                                  contiki-srf06-cc26xx.a(opt-3001-sensor)
                                                  contiki-srf06-cc26xx.a(tmp-007-sensor.)
                                                  contiki-srf06-cc26xx.a(bmp-280-sensor.)
                                                  contiki-srf06-cc26xx.a(mqtt.o)
                                                  obj_srf06-cc26xx/mqtt-client.o
                                                  cc26xx-web-demo.co
ctimer_set_with_process                           contiki-srf06-cc26xx.a(ctimer.o)
ctimer_stop                                       contiki-srf06-cc26xx.a(ctimer.o)
                                                  contiki-srf06-cc26xx.a(contikimac.o)
                                                  contiki-srf06-cc26xx.a(csma.o)
                                                  contiki-srf06-cc26xx.a(rpl-timers.o)
                                                  contiki-srf06-cc26xx.a(rpl-dag.o)
                                                  contiki-srf06-cc26xx.a(mpu-9250-sensor)
                                                  contiki-srf06-cc26xx.a(hdc-1000-sensor)
                                                  contiki-srf06-cc26xx.a(opt-3001-sensor)
                                                  contiki-srf06-cc26xx.a(tmp-007-sensor.)
                                                  contiki-srf06-cc26xx.a(bmp-280-sensor.)
                                                  contiki-srf06-cc26xx.a(mqtt.o)
dao_ack_output                                    contiki-srf06-cc26xx.a(rpl-icmp6.o)
dao_output                                        contiki-srf06-cc26xx.a(rpl-icmp6.o)
                                                  contiki-srf06-cc26xx.a(rpl.o)
                                                  contiki-srf06-cc26xx.a(rpl-timers.o)
                                                  contiki-srf06-cc26xx.a(rpl-dag.o)
dao_output_target                                 contiki-srf06-cc26xx.a(rpl-icmp6.o)
                                                  contiki-srf06-cc26xx.a(rpl.o)
                                                  contiki-srf06-cc26xx.a(rpl-ext-header.)
dbg_send_bytes                                    contiki-srf06-cc26xx.a(putchar.o)
                                                  contiki-srf06-cc26xx.a(dbg-printf.o)
def_rt_rssi                                       cc26xx-web-demo.co
                                                  obj_srf06-cc26xx/mqtt-client.o
                                                  obj_srf06-cc26xx/res-net.o
default_instance                                  contiki-srf06-cc26xx.a(rpl-dag.o)
                                                  contiki-srf06-cc26xx.a(rpl.o)
                                                  contiki-srf06-cc26xx.a(rpl-ext-header.)
defaults_handler                                  cc26xx-web-demo.co
dio_output                                        contiki-srf06-cc26xx.a(rpl-icmp6.o)
                                                  contiki-srf06-cc26xx.a(rpl-timers.o)
dis_output                                        contiki-srf06-cc26xx.a(rpl-icmp6.o)
                                                  contiki-srf06-cc26xx.a(rpl-timers.o)
ds6_neighbors                                     contiki-srf06-cc26xx.a(uip-ds6-nbr.o)
                                                  contiki-srf06-cc26xx.a(rpl-nbr-policy.)
                                                  contiki-srf06-cc26xx.a(rpl-dag.o)
                                                  obj_srf06-cc26xx/httpd-simple.o
energest_flush                                    contiki-srf06-cc26xx.a(energest.o)
energest_init                                     contiki-srf06-cc26xx.a(energest.o)
                                                  contiki-srf06-cc26xx.a(contiki-main.o)
energest_type_set                                 contiki-srf06-cc26xx.a(energest.o)
energest_type_time                                contiki-srf06-cc26xx.a(energest.o)
erbium_status_code                                contiki-srf06-cc26xx.a(er-coap.o)
                                                  contiki-srf06-cc26xx.a(er-coap-engine.)
etimer_adjust                                     contiki-srf06-cc26xx.a(etimer.o)
etimer_expiration_time                            contiki-srf06-cc26xx.a(etimer.o)
                                                  contiki-srf06-cc26xx.a(rpl-timers.o)
etimer_expired                                    contiki-srf06-cc26xx.a(etimer.o)
                                                  contiki-srf06-cc26xx.a(rpl-timers.o)
                                                  contiki-srf06-cc26xx.a(tcpip.o)
                                                  contiki-srf06-cc26xx.a(ctimer.o)
                                                  contiki-srf06-cc26xx.a(rf-ble.o)
                                                  contiki-srf06-cc26xx.a(rest-engine.o)
                                                  contiki-srf06-cc26xx.a(er-coap-transac)
                                                  obj_srf06-cc26xx/cetic-6lbr-client.o
                                                  cc26xx-web-demo.co
etimer_next_expiration_time                       contiki-srf06-cc26xx.a(etimer.o)
                                                  contiki-srf06-cc26xx.a(lpm.o)
etimer_pending                                    contiki-srf06-cc26xx.a(etimer.o)
                                                  contiki-srf06-cc26xx.a(lpm.o)
                                                  contiki-srf06-cc26xx.a(clock.o)
etimer_process                                    contiki-srf06-cc26xx.a(etimer.o)
                                                  contiki-srf06-cc26xx.a(contiki-main.o)
etimer_request_poll                               contiki-srf06-cc26xx.a(etimer.o)
                                                  contiki-srf06-cc26xx.a(clock.o)
etimer_reset                                      contiki-srf06-cc26xx.a(etimer.o)
                                                  contiki-srf06-cc26xx.a(uip-ds6.o)
                                                  contiki-srf06-cc26xx.a(ctimer.o)
                                                  contiki-srf06-cc26xx.a(rest-engine.o)
etimer_reset_with_new_interval                    contiki-srf06-cc26xx.a(etimer.o)
etimer_restart                                    contiki-srf06-cc26xx.a(etimer.o)
                                                  contiki-srf06-cc26xx.a(tcpip.o)
                                                  contiki-srf06-cc26xx.a(ctimer.o)
                                                  contiki-srf06-cc26xx.a(er-coap-transac)
etimer_set                                        contiki-srf06-cc26xx.a(etimer.o)
                                                  contiki-srf06-cc26xx.a(tcpip.o)
                                                  contiki-srf06-cc26xx.a(uip-ds6.o)
                                                  contiki-srf06-cc26xx.a(ctimer.o)
                                                  contiki-srf06-cc26xx.a(rf-ble.o)
                                                  contiki-srf06-cc26xx.a(rest-engine.o)
                                                  obj_srf06-cc26xx/mqtt-client.o
                                                  obj_srf06-cc26xx/cetic-6lbr-client.o
                                                  cc26xx-web-demo.co
etimer_start_time                                 contiki-srf06-cc26xx.a(etimer.o)
etimer_stop                                       contiki-srf06-cc26xx.a(etimer.o)
                                                  contiki-srf06-cc26xx.a(ctimer.o)
                                                  contiki-srf06-cc26xx.a(er-coap-transac)
                                                  obj_srf06-cc26xx/mqtt-client.o
event_type_id_handler                             obj_srf06-cc26xx/mqtt-client.o
exp2                                              /usr/lib/gcc/arm-none-eabi/5.4.1/../../../arm-none-eabi/lib/armv7-m/libm.a(lib_a-w_exp2.o)
                                                  contiki-srf06-cc26xx.a(opt-3001-sensor)
ext_flash_close                                   contiki-srf06-cc26xx.a(ext-flash.o)
                                                  cc26xx-web-demo.co
ext_flash_erase                                   contiki-srf06-cc26xx.a(ext-flash.o)
                                                  cc26xx-web-demo.co
ext_flash_init                                    contiki-srf06-cc26xx.a(ext-flash.o)
                                                  contiki-srf06-cc26xx.a(board.o)
ext_flash_open                                    contiki-srf06-cc26xx.a(ext-flash.o)
                                                  cc26xx-web-demo.co
ext_flash_read                                    contiki-srf06-cc26xx.a(ext-flash.o)
                                                  cc26xx-web-demo.co
ext_flash_test                                    contiki-srf06-cc26xx.a(ext-flash.o)
ext_flash_write                                   contiki-srf06-cc26xx.a(ext-flash.o)
                                                  cc26xx-web-demo.co
fabs                                              /usr/lib/gcc/arm-none-eabi/5.4.1/../../../arm-none-eabi/lib/armv7-m/libm.a(lib_a-s_fabs.o)
                                                  /usr/lib/gcc/arm-none-eabi/5.4.1/../../../arm-none-eabi/lib/armv7-m/libm.a(lib_a-e_pow.o)
find_removable_dao                                contiki-srf06-cc26xx.a(rpl-nbr-policy.)
find_removable_dio                                contiki-srf06-cc26xx.a(rpl-nbr-policy.)
find_removable_dis                                contiki-srf06-cc26xx.a(rpl-nbr-policy.)
finite                                            /usr/lib/gcc/arm-none-eabi/5.4.1/../../../arm-none-eabi/lib/armv7-m/libm.a(lib_a-s_finite.o)
                                                  /usr/lib/gcc/arm-none-eabi/5.4.1/../../../arm-none-eabi/lib/armv7-m/libm.a(lib_a-w_pow.o)
forbidden_payload                                 obj_srf06-cc26xx/res-ble-advd.o
format_str                                        contiki-srf06-cc26xx.a(strformat.o)
format_str_v                                      contiki-srf06-cc26xx.a(strformat.o)
                                                  contiki-srf06-cc26xx.a(dbg-sprintf.o)
                                                  contiki-srf06-cc26xx.a(dbg-snprintf.o)
                                                  contiki-srf06-cc26xx.a(dbg-printf.o)
frame802154_check_dest_panid                      contiki-srf06-cc26xx.a(frame802154.o)
frame802154_create                                contiki-srf06-cc26xx.a(frame802154.o)
                                                  contiki-srf06-cc26xx.a(framer-802154.o)
frame802154_create_fcf                            contiki-srf06-cc26xx.a(frame802154.o)
frame802154_extract_linkaddr                      contiki-srf06-cc26xx.a(frame802154.o)
frame802154_get_pan_id                            contiki-srf06-cc26xx.a(frame802154.o)
                                                  contiki-srf06-cc26xx.a(framer-802154.o)
frame802154_has_panid                             contiki-srf06-cc26xx.a(frame802154.o)
frame802154_hdrlen                                contiki-srf06-cc26xx.a(frame802154.o)
                                                  contiki-srf06-cc26xx.a(framer-802154.o)
frame802154_is_broadcast_addr                     contiki-srf06-cc26xx.a(frame802154.o)
                                                  contiki-srf06-cc26xx.a(framer-802154.o)
frame802154_parse                                 contiki-srf06-cc26xx.a(frame802154.o)
                                                  contiki-srf06-cc26xx.a(framer-802154.o)
frame802154_parse_fcf                             contiki-srf06-cc26xx.a(frame802154.o)
frame802154_set_pan_id                            contiki-srf06-cc26xx.a(frame802154.o)
framer_802154                                     contiki-srf06-cc26xx.a(framer-802154.o)
                                                  contiki-srf06-cc26xx.a(contikimac.o)
                                                  contiki-srf06-cc26xx.a(sicslowpan.o)
g_pfnVectors                                      obj_srf06-cc26xx/startup_gcc.o
get_match_length                                  contiki-srf06-cc26xx.a(uip-ds6.o)
get_probing_delay                                 contiki-srf06-cc26xx.a(rpl-timers.o)
get_probing_target                                contiki-srf06-cc26xx.a(rpl-timers.o)
gpio_interrupt_init                               contiki-srf06-cc26xx.a(gpio-interrupt.)
                                                  contiki-srf06-cc26xx.a(contiki-main.o)
gpio_interrupt_register_handler                   contiki-srf06-cc26xx.a(gpio-interrupt.)
                                                  contiki-srf06-cc26xx.a(reed-relay.o)
                                                  contiki-srf06-cc26xx.a(button-sensor.o)
guess_etx_from_rssi                               contiki-srf06-cc26xx.a(link-stats.o)
hdc_1000_sensor                                   contiki-srf06-cc26xx.a(hdc-1000-sensor)
                                                  contiki-srf06-cc26xx.a(board.o)
                                                  contiki-srf06-cc26xx.a(sensortag-senso)
                                                  cc26xx-web-demo.co
hdc_hum_reading                                   cc26xx-web-demo.co
hdc_temp_reading                                  cc26xx-web-demo.co
hdc_timer                                         cc26xx-web-demo.co
httpd_simple_event_new_config                     obj_srf06-cc26xx/httpd-simple.o
                                                  obj_srf06-cc26xx/mqtt-client.o
                                                  cc26xx-web-demo.co
httpd_simple_process                              obj_srf06-cc26xx/httpd-simple.o
                                                  cc26xx-web-demo.co
httpd_simple_register_post_handler                obj_srf06-cc26xx/httpd-simple.o
                                                  obj_srf06-cc26xx/mqtt-client.o
                                                  obj_srf06-cc26xx/net-uart.o
                                                  cc26xx-web-demo.co
icmp6_new                                         contiki-srf06-cc26xx.a(tcpip.o)
ieee_addr_cpy_to                                  contiki-srf06-cc26xx.a(ieee-addr.o)
                                                  contiki-srf06-cc26xx.a(contiki-main.o)
ieee_mode_driver                                  contiki-srf06-cc26xx.a(ieee-mode.o)
                                                  contiki-srf06-cc26xx.a(rf-core.o)
                                                  contiki-srf06-cc26xx.a(contikimac.o)
                                                  contiki-srf06-cc26xx.a(netstack.o)
                                                  contiki-srf06-cc26xx.a(rf-ble.o)
                                                  contiki-srf06-cc26xx.a(contiki-main.o)
instance_table                                    contiki-srf06-cc26xx.a(rpl-dag.o)
                                                  contiki-srf06-cc26xx.a(rpl-icmp6.o)
                                                  contiki-srf06-cc26xx.a(rpl.o)
interval_handler                                  obj_srf06-cc26xx/mqtt-client.o
ip_addr_handler                                   obj_srf06-cc26xx/mqtt-client.o
leds_arch_get                                     contiki-srf06-cc26xx.a(leds-arch.o)
                                                  contiki-srf06-cc26xx.a(leds.o)
leds_arch_init                                    contiki-srf06-cc26xx.a(leds-arch.o)
                                                  contiki-srf06-cc26xx.a(leds.o)
leds_arch_set                                     contiki-srf06-cc26xx.a(leds-arch.o)
                                                  contiki-srf06-cc26xx.a(leds.o)
leds_blink                                        contiki-srf06-cc26xx.a(leds.o)
leds_get                                          contiki-srf06-cc26xx.a(leds.o)
leds_init                                         contiki-srf06-cc26xx.a(leds.o)
                                                  contiki-srf06-cc26xx.a(contiki-main.o)
leds_off                                          contiki-srf06-cc26xx.a(leds.o)
                                                  contiki-srf06-cc26xx.a(contiki-main.o)
                                                  obj_srf06-cc26xx/mqtt-client.o
                                                  obj_srf06-cc26xx/res-leds.o
                                                  cc26xx-web-demo.co
leds_on                                           contiki-srf06-cc26xx.a(leds.o)
                                                  contiki-srf06-cc26xx.a(contiki-main.o)
                                                  obj_srf06-cc26xx/mqtt-client.o
                                                  obj_srf06-cc26xx/res-leds.o
                                                  cc26xx-web-demo.co
leds_set                                          contiki-srf06-cc26xx.a(leds.o)
leds_toggle                                       contiki-srf06-cc26xx.a(leds.o)
                                                  obj_srf06-cc26xx/res-toggle-leds.o
link_stats_from_lladdr                            contiki-srf06-cc26xx.a(link-stats.o)
                                                  contiki-srf06-cc26xx.a(rpl-dag.o)
link_stats_init                                   contiki-srf06-cc26xx.a(link-stats.o)
                                                  contiki-srf06-cc26xx.a(uip-ds6-nbr.o)
link_stats_input_callback                         contiki-srf06-cc26xx.a(link-stats.o)
                                                  contiki-srf06-cc26xx.a(sicslowpan.o)
link_stats_is_fresh                               contiki-srf06-cc26xx.a(link-stats.o)
                                                  contiki-srf06-cc26xx.a(rpl-dag.o)
link_stats_packet_sent                            contiki-srf06-cc26xx.a(link-stats.o)
                                                  contiki-srf06-cc26xx.a(uip-ds6-nbr.o)
linkaddr_cmp                                      contiki-srf06-cc26xx.a(linkaddr.o)
                                                  contiki-srf06-cc26xx.a(mac-sequence.o)
                                                  contiki-srf06-cc26xx.a(contikimac.o)
                                                  contiki-srf06-cc26xx.a(csma.o)
                                                  contiki-srf06-cc26xx.a(packetbuf.o)
                                                  contiki-srf06-cc26xx.a(nbr-table.o)
                                                  contiki-srf06-cc26xx.a(sicslowpan.o)
                                                  contiki-srf06-cc26xx.a(uip-ds6-nbr.o)
linkaddr_copy                                     contiki-srf06-cc26xx.a(linkaddr.o)
                                                  contiki-srf06-cc26xx.a(mac-sequence.o)
                                                  contiki-srf06-cc26xx.a(csma.o)
                                                  contiki-srf06-cc26xx.a(frame802154.o)
                                                  contiki-srf06-cc26xx.a(framer-802154.o)
                                                  contiki-srf06-cc26xx.a(packetbuf.o)
                                                  contiki-srf06-cc26xx.a(nbr-table.o)
                                                  contiki-srf06-cc26xx.a(sicslowpan.o)
linkaddr_node_addr                                contiki-srf06-cc26xx.a(linkaddr.o)
                                                  contiki-srf06-cc26xx.a(contikimac.o)
                                                  contiki-srf06-cc26xx.a(rf-ble.o)
                                                  contiki-srf06-cc26xx.a(contiki-main.o)
                                                  obj_srf06-cc26xx/httpd-simple.o
                                                  obj_srf06-cc26xx/mqtt-client.o
linkaddr_null                                     contiki-srf06-cc26xx.a(linkaddr.o)
                                                  contiki-srf06-cc26xx.a(frame802154.o)
                                                  contiki-srf06-cc26xx.a(packetbuf.o)
                                                  contiki-srf06-cc26xx.a(nbr-table.o)
                                                  contiki-srf06-cc26xx.a(sicslowpan.o)
                                                  contiki-srf06-cc26xx.a(uip-ds6-nbr.o)
linkaddr_set_node_addr                            contiki-srf06-cc26xx.a(linkaddr.o)
list_add                                          contiki-srf06-cc26xx.a(list.o)
                                                  contiki-srf06-cc26xx.a(aux-ctrl.o)
                                                  contiki-srf06-cc26xx.a(csma.o)
                                                  contiki-srf06-cc26xx.a(nbr-table.o)
                                                  contiki-srf06-cc26xx.a(tcp-socket.o)
                                                  contiki-srf06-cc26xx.a(uip-ds6-route.o)
                                                  contiki-srf06-cc26xx.a(uip-icmp6.o)
                                                  contiki-srf06-cc26xx.a(ctimer.o)
                                                  contiki-srf06-cc26xx.a(lpm.o)
                                                  contiki-srf06-cc26xx.a(mqtt.o)
                                                  contiki-srf06-cc26xx.a(rest-engine.o)
                                                  contiki-srf06-cc26xx.a(er-coap-observe)
                                                  contiki-srf06-cc26xx.a(er-coap-transac)
                                                  obj_srf06-cc26xx/httpd-simple.o
                                                  cc26xx-web-demo.co
list_chop                                         contiki-srf06-cc26xx.a(list.o)
list_copy                                         contiki-srf06-cc26xx.a(list.o)
list_head                                         contiki-srf06-cc26xx.a(list.o)
                                                  contiki-srf06-cc26xx.a(aux-ctrl.o)
                                                  contiki-srf06-cc26xx.a(csma.o)
                                                  contiki-srf06-cc26xx.a(nbr-table.o)
                                                  contiki-srf06-cc26xx.a(tcp-socket.o)
                                                  contiki-srf06-cc26xx.a(uip-ds6-route.o)
                                                  contiki-srf06-cc26xx.a(uip-icmp6.o)
                                                  contiki-srf06-cc26xx.a(ctimer.o)
                                                  contiki-srf06-cc26xx.a(lpm.o)
                                                  contiki-srf06-cc26xx.a(rest-engine.o)
                                                  contiki-srf06-cc26xx.a(er-coap-res-wel)
                                                  contiki-srf06-cc26xx.a(er-coap-observe)
                                                  contiki-srf06-cc26xx.a(er-coap-transac)
                                                  obj_srf06-cc26xx/httpd-simple.o
                                                  cc26xx-web-demo.co
list_init                                         contiki-srf06-cc26xx.a(list.o)
                                                  contiki-srf06-cc26xx.a(csma.o)
                                                  contiki-srf06-cc26xx.a(tcp-socket.o)
                                                  contiki-srf06-cc26xx.a(uip-ds6-route.o)
                                                  contiki-srf06-cc26xx.a(ctimer.o)
                                                  contiki-srf06-cc26xx.a(lpm.o)
                                                  contiki-srf06-cc26xx.a(mqtt.o)
                                                  contiki-srf06-cc26xx.a(rest-engine.o)
list_insert                                       contiki-srf06-cc26xx.a(list.o)
list_item_next                                    contiki-srf06-cc26xx.a(list.o)
                                                  contiki-srf06-cc26xx.a(contikimac.o)
                                                  contiki-srf06-cc26xx.a(csma.o)
                                                  contiki-srf06-cc26xx.a(nbr-table.o)
                                                  contiki-srf06-cc26xx.a(tcp-socket.o)
                                                  contiki-srf06-cc26xx.a(uip-ds6-route.o)
                                                  contiki-srf06-cc26xx.a(uip-icmp6.o)
                                                  obj_srf06-cc26xx/httpd-simple.o
                                                  cc26xx-web-demo.co
list_length                                       contiki-srf06-cc26xx.a(list.o)
                                                  contiki-srf06-cc26xx.a(csma.o)
                                                  contiki-srf06-cc26xx.a(uip-ds6-route.o)
list_pop                                          contiki-srf06-cc26xx.a(list.o)
list_push                                         contiki-srf06-cc26xx.a(list.o)
                                                  contiki-srf06-cc26xx.a(uip-ds6-route.o)
list_remove                                       contiki-srf06-cc26xx.a(list.o)
                                                  contiki-srf06-cc26xx.a(aux-ctrl.o)
                                                  contiki-srf06-cc26xx.a(csma.o)
                                                  contiki-srf06-cc26xx.a(nbr-table.o)
                                                  contiki-srf06-cc26xx.a(tcp-socket.o)
                                                  contiki-srf06-cc26xx.a(uip-ds6-route.o)
                                                  contiki-srf06-cc26xx.a(uip-icmp6.o)
                                                  contiki-srf06-cc26xx.a(ctimer.o)
                                                  contiki-srf06-cc26xx.a(lpm.o)
                                                  contiki-srf06-cc26xx.a(er-coap-observe)
                                                  contiki-srf06-cc26xx.a(er-coap-transac)
list_tail                                         contiki-srf06-cc26xx.a(list.o)
llprefix                                          contiki-srf06-cc26xx.a(sicslowpan.o)
lpm_drop                                          contiki-srf06-cc26xx.a(lpm.o)
                                                  contiki-srf06-cc26xx.a(contiki-main.o)
lpm_init                                          contiki-srf06-cc26xx.a(lpm.o)
                                                  contiki-srf06-cc26xx.a(contiki-main.o)
lpm_pin_set_default_state                         contiki-srf06-cc26xx.a(lpm.o)
                                                  contiki-srf06-cc26xx.a(cc26xx-uart.o)
lpm_register_module                               contiki-srf06-cc26xx.a(lpm.o)
                                                  contiki-srf06-cc26xx.a(soc-trng.o)
                                                  contiki-srf06-cc26xx.a(ieee-mode.o)
                                                  contiki-srf06-cc26xx.a(cc26xx-uart.o)
                                                  contiki-srf06-cc26xx.a(board.o)
                                                  contiki-srf06-cc26xx.a(buzzer.o)
lpm_shutdown                                      contiki-srf06-cc26xx.a(lpm.o)
                                                  contiki-srf06-cc26xx.a(button-sensor.o)
lpm_sleep                                         contiki-srf06-cc26xx.a(lpm.o)
                                                  contiki-srf06-cc26xx.a(ieee-mode.o)
lpm_unregister_module                             contiki-srf06-cc26xx.a(lpm.o)
                                                  contiki-srf06-cc26xx.a(soc-trng.o)
                                                  contiki-srf06-cc26xx.a(buzzer.o)
mac_call_sent_callback                            contiki-srf06-cc26xx.a(mac.o)
                                                  contiki-srf06-cc26xx.a(contikimac.o)
                                                  contiki-srf06-cc26xx.a(csma.o)
mac_sequence_is_duplicate                         contiki-srf06-cc26xx.a(mac-sequence.o)
                                                  contiki-srf06-cc26xx.a(contikimac.o)
mac_sequence_register_seqno                       contiki-srf06-cc26xx.a(mac-sequence.o)
                                                  contiki-srf06-cc26xx.a(contikimac.o)
main                                              contiki-srf06-cc26xx.a(contiki-main.o)
                                                  obj_srf06-cc26xx/startup_gcc.o
matherr                                           /usr/lib/gcc/arm-none-eabi/5.4.1/../../../arm-none-eabi/lib/armv7-m/libm.a(lib_a-s_matherr.o)
                                                  /usr/lib/gcc/arm-none-eabi/5.4.1/../../../arm-none-eabi/lib/armv7-m/libm.a(lib_a-w_pow.o)
memb_alloc                                        contiki-srf06-cc26xx.a(memb.o)
                                                  contiki-srf06-cc26xx.a(csma.o)
                                                  contiki-srf06-cc26xx.a(nbr-table.o)
                                                  contiki-srf06-cc26xx.a(queuebuf.o)
                                                  contiki-srf06-cc26xx.a(uip-ds6-route.o)
                                                  contiki-srf06-cc26xx.a(er-coap-observe)
                                                  contiki-srf06-cc26xx.a(er-coap-transac)
                                                  obj_srf06-cc26xx/httpd-simple.o
memb_free                                         contiki-srf06-cc26xx.a(memb.o)
                                                  contiki-srf06-cc26xx.a(csma.o)
                                                  contiki-srf06-cc26xx.a(queuebuf.o)
                                                  contiki-srf06-cc26xx.a(uip-ds6-route.o)
                                                  contiki-srf06-cc26xx.a(er-coap-observe)
                                                  contiki-srf06-cc26xx.a(er-coap-transac)
                                                  obj_srf06-cc26xx/httpd-simple.o
memb_init                                         contiki-srf06-cc26xx.a(memb.o)
                                                  contiki-srf06-cc26xx.a(csma.o)
                                                  contiki-srf06-cc26xx.a(queuebuf.o)
                                                  contiki-srf06-cc26xx.a(uip-ds6-route.o)
                                                  obj_srf06-cc26xx/httpd-simple.o
memb_inmemb                                       contiki-srf06-cc26xx.a(memb.o)
                                                  contiki-srf06-cc26xx.a(queuebuf.o)
memb_numfree                                      contiki-srf06-cc26xx.a(memb.o)
                                                  contiki-srf06-cc26xx.a(queuebuf.o)
memchr                                            /usr/lib/gcc/arm-none-eabi/5.4.1/../../../arm-none-eabi/lib/armv7-m/libc.a(lib_a-memchr-stub.o)
                                                  contiki-srf06-cc26xx.a(er-coap.o)
memcmp                                            /usr/lib/gcc/arm-none-eabi/5.4.1/../../../arm-none-eabi/lib/armv7-m/libc.a(lib_a-memcmp.o)
                                                  contiki-srf06-cc26xx.a(linkaddr.o)
                                                  contiki-srf06-cc26xx.a(rpl-icmp6.o)
                                                  contiki-srf06-cc26xx.a(rpl.o)
                                                  contiki-srf06-cc26xx.a(rpl-dag.o)
                                                  contiki-srf06-cc26xx.a(sicslowpan.o)
                                                  contiki-srf06-cc26xx.a(uip-nd6.o)
                                                  contiki-srf06-cc26xx.a(uip-ds6-nbr.o)
                                                  contiki-srf06-cc26xx.a(uip6.o)
                                                  contiki-srf06-cc26xx.a(uip-ds6-route.o)
                                                  contiki-srf06-cc26xx.a(uip-ds6.o)
                                                  contiki-srf06-cc26xx.a(er-coap-observe)
                                                  obj_srf06-cc26xx/cetic-6lbr-client.o
                                                  cc26xx-web-demo.co
memcpy                                            /usr/lib/gcc/arm-none-eabi/5.4.1/../../../arm-none-eabi/lib/armv7-m/libc.a(lib_a-memcpy.o)
                                                  contiki-srf06-cc26xx.a(er-coap.o)
                                                  contiki-srf06-cc26xx.a(packetbuf.o)
                                                  contiki-srf06-cc26xx.a(rpl-icmp6.o)
                                                  contiki-srf06-cc26xx.a(rpl-dag.o)
                                                  contiki-srf06-cc26xx.a(psock.o)
                                                  contiki-srf06-cc26xx.a(tcp-socket.o)
                                                  contiki-srf06-cc26xx.a(sicslowpan.o)
                                                  contiki-srf06-cc26xx.a(uip6.o)
                                                  contiki-srf06-cc26xx.a(dbg-sprintf.o)
                                                  contiki-srf06-cc26xx.a(dbg-snprintf.o)
                                                  contiki-srf06-cc26xx.a(ieee-mode.o)
                                                  contiki-srf06-cc26xx.a(rf-ble.o)
                                                  contiki-srf06-cc26xx.a(mqtt.o)
                                                  contiki-srf06-cc26xx.a(er-coap-observe)
                                                  obj_srf06-cc26xx/httpd-simple.o
                                                  obj_srf06-cc26xx/mqtt-client.o
                                                  obj_srf06-cc26xx/net-uart.o
                                                  obj_srf06-cc26xx/res-ble-advd.o
                                                  cc26xx-web-demo.co
memmove                                           /usr/lib/gcc/arm-none-eabi/5.4.1/../../../arm-none-eabi/lib/armv7-m/libc.a(lib_a-memmove.o)
                                                  contiki-srf06-cc26xx.a(er-coap.o)
                                                  contiki-srf06-cc26xx.a(rpl-ext-header.)
                                                  contiki-srf06-cc26xx.a(uip-udp-packet.)
                                                  contiki-srf06-cc26xx.a(uiplib.o)
                                                  contiki-srf06-cc26xx.a(sicslowpan.o)
                                                  contiki-srf06-cc26xx.a(uip6.o)
                                                  contiki-srf06-cc26xx.a(uip-icmp6.o)
memset                                            /usr/lib/gcc/arm-none-eabi/5.4.1/../../../arm-none-eabi/lib/armv7-m/libc.a(lib_a-memset.o)
                                                  contiki-srf06-cc26xx.a(rf-core.o)
                                                  contiki-srf06-cc26xx.a(er-coap.o)
                                                  contiki-srf06-cc26xx.a(framer-802154.o)
                                                  contiki-srf06-cc26xx.a(packetbuf.o)
                                                  contiki-srf06-cc26xx.a(nbr-table.o)
                                                  contiki-srf06-cc26xx.a(rpl-icmp6.o)
                                                  contiki-srf06-cc26xx.a(rpl-dag.o)
                                                  contiki-srf06-cc26xx.a(uiplib.o)
                                                  contiki-srf06-cc26xx.a(sicslowpan.o)
                                                  contiki-srf06-cc26xx.a(uip-ds6.o)
                                                  contiki-srf06-cc26xx.a(memb.o)
                                                  contiki-srf06-cc26xx.a(ieee-mode.o)
                                                  contiki-srf06-cc26xx.a(rf-ble.o)
                                                  contiki-srf06-cc26xx.a(mqtt.o)
                                                  obj_srf06-cc26xx/httpd-simple.o
                                                  obj_srf06-cc26xx/mqtt-client.o
                                                  obj_srf06-cc26xx/net-uart.o
                                                  obj_srf06-cc26xx/res-net.o
                                                  obj_srf06-cc26xx/res-ble-advd.o
mpu_9250_sensor                                   contiki-srf06-cc26xx.a(mpu-9250-sensor)
                                                  contiki-srf06-cc26xx.a(board.o)
                                                  contiki-srf06-cc26xx.a(sensortag-senso)
                                                  cc26xx-web-demo.co
mpu_acc_x_reading                                 cc26xx-web-demo.co
mpu_acc_y_reading                                 cc26xx-web-demo.co
mpu_acc_z_reading                                 cc26xx-web-demo.co
mpu_gyro_x_reading                                cc26xx-web-demo.co
mpu_gyro_y_reading                                cc26xx-web-demo.co
mpu_gyro_z_reading                                cc26xx-web-demo.co
mpu_timer                                         cc26xx-web-demo.co
mqtt_client_process                               obj_srf06-cc26xx/mqtt-client.o
                                                  cc26xx-web-demo.co
mqtt_connect                                      contiki-srf06-cc26xx.a(mqtt.o)
                                                  obj_srf06-cc26xx/mqtt-client.o
mqtt_disconnect                                   contiki-srf06-cc26xx.a(mqtt.o)
                                                  obj_srf06-cc26xx/mqtt-client.o
mqtt_init                                         contiki-srf06-cc26xx.a(mqtt.o)
mqtt_process                                      contiki-srf06-cc26xx.a(mqtt.o)
mqtt_publish                                      contiki-srf06-cc26xx.a(mqtt.o)
                                                  obj_srf06-cc26xx/mqtt-client.o
mqtt_register                                     contiki-srf06-cc26xx.a(mqtt.o)
                                                  obj_srf06-cc26xx/mqtt-client.o
mqtt_set_last_will                                contiki-srf06-cc26xx.a(mqtt.o)
mqtt_set_username_password                        contiki-srf06-cc26xx.a(mqtt.o)
                                                  obj_srf06-cc26xx/mqtt-client.o
mqtt_subscribe                                    contiki-srf06-cc26xx.a(mqtt.o)
                                                  obj_srf06-cc26xx/mqtt-client.o
mqtt_unsubscribe                                  contiki-srf06-cc26xx.a(mqtt.o)
mqtt_update_event                                 contiki-srf06-cc26xx.a(mqtt.o)
nan                                               /usr/lib/gcc/arm-none-eabi/5.4.1/../../../arm-none-eabi/lib/armv7-m/libm.a(lib_a-s_nan.o)
                                                  /usr/lib/gcc/arm-none-eabi/5.4.1/../../../arm-none-eabi/lib/armv7-m/libm.a(lib_a-e_pow.o)
nbr_routes                                        contiki-srf06-cc26xx.a(uip-ds6-route.o)
nbr_table_add_lladdr                              contiki-srf06-cc26xx.a(nbr-table.o)
                                                  contiki-srf06-cc26xx.a(link-stats.o)
                                                  contiki-srf06-cc26xx.a(rpl-dag.o)
                                                  contiki-srf06-cc26xx.a(uip-ds6-nbr.o)
                                                  contiki-srf06-cc26xx.a(uip-ds6-route.o)
nbr_table_get_from_lladdr                         contiki-srf06-cc26xx.a(nbr-table.o)
                                                  contiki-srf06-cc26xx.a(link-stats.o)
                                                  contiki-srf06-cc26xx.a(rpl-ext-header.)
                                                  contiki-srf06-cc26xx.a(rpl-dag.o)
                                                  contiki-srf06-cc26xx.a(uip-ds6-nbr.o)
                                                  contiki-srf06-cc26xx.a(uip-ds6-route.o)
nbr_table_get_lladdr                              contiki-srf06-cc26xx.a(nbr-table.o)
                                                  contiki-srf06-cc26xx.a(rpl-nbr-policy.)
                                                  contiki-srf06-cc26xx.a(rpl-dag.o)
                                                  contiki-srf06-cc26xx.a(uip-ds6-nbr.o)
                                                  contiki-srf06-cc26xx.a(uip-ds6-route.o)
nbr_table_head                                    contiki-srf06-cc26xx.a(nbr-table.o)
                                                  contiki-srf06-cc26xx.a(rpl-nbr-policy.)
                                                  contiki-srf06-cc26xx.a(link-stats.o)
                                                  contiki-srf06-cc26xx.a(rpl-timers.o)
                                                  contiki-srf06-cc26xx.a(rpl-dag.o)
                                                  contiki-srf06-cc26xx.a(uip-ds6-nbr.o)
                                                  obj_srf06-cc26xx/httpd-simple.o
nbr_table_lock                                    contiki-srf06-cc26xx.a(nbr-table.o)
                                                  contiki-srf06-cc26xx.a(rpl-dag.o)
                                                  contiki-srf06-cc26xx.a(uip-ds6-route.o)
nbr_table_next                                    contiki-srf06-cc26xx.a(nbr-table.o)
                                                  contiki-srf06-cc26xx.a(rpl-nbr-policy.)
                                                  contiki-srf06-cc26xx.a(link-stats.o)
                                                  contiki-srf06-cc26xx.a(rpl-timers.o)
                                                  contiki-srf06-cc26xx.a(rpl-dag.o)
                                                  contiki-srf06-cc26xx.a(uip-ds6-nbr.o)
                                                  obj_srf06-cc26xx/httpd-simple.o
nbr_table_register                                contiki-srf06-cc26xx.a(nbr-table.o)
                                                  contiki-srf06-cc26xx.a(link-stats.o)
                                                  contiki-srf06-cc26xx.a(rpl-dag.o)
                                                  contiki-srf06-cc26xx.a(uip-ds6-nbr.o)
                                                  contiki-srf06-cc26xx.a(uip-ds6-route.o)
nbr_table_remove                                  contiki-srf06-cc26xx.a(nbr-table.o)
                                                  contiki-srf06-cc26xx.a(rpl-dag.o)
                                                  contiki-srf06-cc26xx.a(uip-ds6-nbr.o)
                                                  contiki-srf06-cc26xx.a(uip-ds6-route.o)
nbr_table_unlock                                  contiki-srf06-cc26xx.a(nbr-table.o)
                                                  contiki-srf06-cc26xx.a(rpl-dag.o)
nbr_table_update_lladdr                           contiki-srf06-cc26xx.a(nbr-table.o)
                                                  contiki-srf06-cc26xx.a(uip-nd6.o)
net_uart_process                                  obj_srf06-cc26xx/net-uart.o
                                                  cc26xx-web-demo.co
netstack_init                                     contiki-srf06-cc26xx.a(netstack.o)
                                                  contiki-srf06-cc26xx.a(contiki-main.o)
node_id                                           contiki-srf06-cc26xx.a(contiki-main.o)
nullsec_driver                                    contiki-srf06-cc26xx.a(nullsec.o)
                                                  contiki-srf06-cc26xx.a(csma.o)
                                                  contiki-srf06-cc26xx.a(netstack.o)
                                                  contiki-srf06-cc26xx.a(sicslowpan.o)
on_off_handler                                    obj_srf06-cc26xx/net-uart.o
opt_3001_sensor                                   contiki-srf06-cc26xx.a(opt-3001-sensor)
                                                  contiki-srf06-cc26xx.a(board.o)
                                                  contiki-srf06-cc26xx.a(sensortag-senso)
                                                  cc26xx-web-demo.co
opt_reading                                       cc26xx-web-demo.co
opt_timer                                         cc26xx-web-demo.co
org_id_handler                                    obj_srf06-cc26xx/mqtt-client.o
oscillators_request_hf_xosc                       contiki-srf06-cc26xx.a(oscillators.o)
                                                  contiki-srf06-cc26xx.a(ieee-mode.o)
                                                  contiki-srf06-cc26xx.a(rf-ble.o)
oscillators_select_lf_rcosc                       contiki-srf06-cc26xx.a(oscillators.o)
                                                  contiki-srf06-cc26xx.a(lpm.o)
oscillators_select_lf_xosc                        contiki-srf06-cc26xx.a(oscillators.o)
                                                  contiki-srf06-cc26xx.a(contiki-main.o)
oscillators_switch_to_hf_rc                       contiki-srf06-cc26xx.a(oscillators.o)
                                                  contiki-srf06-cc26xx.a(ieee-mode.o)
                                                  contiki-srf06-cc26xx.a(rf-ble.o)
                                                  contiki-srf06-cc26xx.a(lpm.o)
oscillators_switch_to_hf_xosc                     contiki-srf06-cc26xx.a(oscillators.o)
                                                  contiki-srf06-cc26xx.a(ieee-mode.o)
                                                  contiki-srf06-cc26xx.a(rf-ble.o)
packetbuf_addr                                    contiki-srf06-cc26xx.a(packetbuf.o)
                                                  contiki-srf06-cc26xx.a(mac-sequence.o)
                                                  contiki-srf06-cc26xx.a(contikimac.o)
                                                  contiki-srf06-cc26xx.a(csma.o)
                                                  contiki-srf06-cc26xx.a(framer-802154.o)
                                                  contiki-srf06-cc26xx.a(rpl-icmp6.o)
                                                  contiki-srf06-cc26xx.a(rpl-ext-header.)
                                                  contiki-srf06-cc26xx.a(sicslowpan.o)
                                                  contiki-srf06-cc26xx.a(uip-ds6-nbr.o)
packetbuf_addrs                                   contiki-srf06-cc26xx.a(packetbuf.o)
packetbuf_attr                                    contiki-srf06-cc26xx.a(packetbuf.o)
                                                  contiki-srf06-cc26xx.a(mac-sequence.o)
                                                  contiki-srf06-cc26xx.a(contikimac.o)
                                                  contiki-srf06-cc26xx.a(csma.o)
                                                  contiki-srf06-cc26xx.a(framer-802154.o)
                                                  contiki-srf06-cc26xx.a(link-stats.o)
                                                  contiki-srf06-cc26xx.a(sicslowpan.o)
packetbuf_attr_clear                              contiki-srf06-cc26xx.a(packetbuf.o)
packetbuf_attr_copyfrom                           contiki-srf06-cc26xx.a(packetbuf.o)
                                                  contiki-srf06-cc26xx.a(queuebuf.o)
packetbuf_attr_copyto                             contiki-srf06-cc26xx.a(packetbuf.o)
                                                  contiki-srf06-cc26xx.a(queuebuf.o)
packetbuf_attrs                                   contiki-srf06-cc26xx.a(packetbuf.o)
packetbuf_clear                                   contiki-srf06-cc26xx.a(packetbuf.o)
                                                  contiki-srf06-cc26xx.a(rf-core.o)
                                                  contiki-srf06-cc26xx.a(sicslowpan.o)
packetbuf_compact                                 contiki-srf06-cc26xx.a(packetbuf.o)
packetbuf_copyfrom                                contiki-srf06-cc26xx.a(packetbuf.o)
                                                  contiki-srf06-cc26xx.a(queuebuf.o)
packetbuf_copyto                                  contiki-srf06-cc26xx.a(packetbuf.o)
                                                  contiki-srf06-cc26xx.a(queuebuf.o)
packetbuf_datalen                                 contiki-srf06-cc26xx.a(packetbuf.o)
                                                  contiki-srf06-cc26xx.a(contikimac.o)
                                                  contiki-srf06-cc26xx.a(framer-802154.o)
                                                  contiki-srf06-cc26xx.a(sicslowpan.o)
packetbuf_dataptr                                 contiki-srf06-cc26xx.a(packetbuf.o)
                                                  contiki-srf06-cc26xx.a(rf-core.o)
                                                  contiki-srf06-cc26xx.a(framer-802154.o)
                                                  contiki-srf06-cc26xx.a(sicslowpan.o)
packetbuf_hdralloc                                contiki-srf06-cc26xx.a(packetbuf.o)
                                                  contiki-srf06-cc26xx.a(framer-802154.o)
packetbuf_hdrlen                                  contiki-srf06-cc26xx.a(packetbuf.o)
packetbuf_hdrptr                                  contiki-srf06-cc26xx.a(packetbuf.o)
                                                  contiki-srf06-cc26xx.a(contikimac.o)
                                                  contiki-srf06-cc26xx.a(framer-802154.o)
packetbuf_hdrreduce                               contiki-srf06-cc26xx.a(packetbuf.o)
                                                  contiki-srf06-cc26xx.a(framer-802154.o)
packetbuf_holds_broadcast                         contiki-srf06-cc26xx.a(packetbuf.o)
                                                  contiki-srf06-cc26xx.a(contikimac.o)
                                                  contiki-srf06-cc26xx.a(framer-802154.o)
packetbuf_remaininglen                            contiki-srf06-cc26xx.a(packetbuf.o)
packetbuf_set_addr                                contiki-srf06-cc26xx.a(packetbuf.o)
                                                  contiki-srf06-cc26xx.a(contikimac.o)
                                                  contiki-srf06-cc26xx.a(framer-802154.o)
                                                  contiki-srf06-cc26xx.a(sicslowpan.o)
packetbuf_set_attr                                contiki-srf06-cc26xx.a(packetbuf.o)
                                                  contiki-srf06-cc26xx.a(nullsec.o)
                                                  contiki-srf06-cc26xx.a(contikimac.o)
                                                  contiki-srf06-cc26xx.a(csma.o)
                                                  contiki-srf06-cc26xx.a(framer-802154.o)
                                                  contiki-srf06-cc26xx.a(sicslowpan.o)
                                                  contiki-srf06-cc26xx.a(ieee-mode.o)
packetbuf_set_datalen                             contiki-srf06-cc26xx.a(packetbuf.o)
                                                  contiki-srf06-cc26xx.a(rf-core.o)
                                                  contiki-srf06-cc26xx.a(sicslowpan.o)
packetbuf_totlen                                  contiki-srf06-cc26xx.a(packetbuf.o)
                                                  contiki-srf06-cc26xx.a(contikimac.o)
periodic_timer                                    contiki-srf06-cc26xx.a(link-stats.o)
ping_interval_handler                             cc26xx-web-demo.co
port_handler                                      obj_srf06-cc26xx/mqtt-client.o
pow                                               /usr/lib/gcc/arm-none-eabi/5.4.1/../../../arm-none-eabi/lib/armv7-m/libm.a(lib_a-w_pow.o)
                                                  /usr/lib/gcc/arm-none-eabi/5.4.1/../../../arm-none-eabi/lib/armv7-m/libm.a(lib_a-w_exp2.o)
printf                                            contiki-srf06-cc26xx.a(dbg-printf.o)
                                                  contiki-srf06-cc26xx.a(rpl-dag.o)
                                                  contiki-srf06-cc26xx.a(uip-debug.o)
                                                  contiki-srf06-cc26xx.a(contiki-main.o)
                                                  obj_srf06-cc26xx/mqtt-client.o
                                                  obj_srf06-cc26xx/net-uart.o
process_alloc_event                               contiki-srf06-cc26xx.a(process.o)
                                                  contiki-srf06-cc26xx.a(tcpip.o)
                                                  contiki-srf06-cc26xx.a(serial-line.o)
                                                  contiki-srf06-cc26xx.a(soc-trng.o)
                                                  contiki-srf06-cc26xx.a(sensors.o)
                                                  contiki-srf06-cc26xx.a(mqtt.o)
                                                  obj_srf06-cc26xx/httpd-simple.o
                                                  cc26xx-web-demo.co
process_current                                   contiki-srf06-cc26xx.a(process.o)
                                                  contiki-srf06-cc26xx.a(tcpip.o)
                                                  contiki-srf06-cc26xx.a(tcp-socket.o)
                                                  contiki-srf06-cc26xx.a(serial-line.o)
                                                  contiki-srf06-cc26xx.a(ctimer.o)
                                                  contiki-srf06-cc26xx.a(etimer.o)
                                                  contiki-srf06-cc26xx.a(mqtt.o)
                                                  contiki-srf06-cc26xx.a(rest-engine.o)
                                                  contiki-srf06-cc26xx.a(er-coap-transac)
                                                  contiki-srf06-cc26xx.a(er-coap-engine.)
process_exit                                      contiki-srf06-cc26xx.a(process.o)
                                                  contiki-srf06-cc26xx.a(autostart.o)
                                                  contiki-srf06-cc26xx.a(rf-ble.o)
process_init                                      contiki-srf06-cc26xx.a(process.o)
                                                  contiki-srf06-cc26xx.a(contiki-main.o)
process_is_running                                contiki-srf06-cc26xx.a(process.o)
                                                  contiki-srf06-cc26xx.a(rest-engine.o)
process_list                                      contiki-srf06-cc26xx.a(process.o)
process_nevents                                   contiki-srf06-cc26xx.a(process.o)
                                                  contiki-srf06-cc26xx.a(lpm.o)
process_poll                                      contiki-srf06-cc26xx.a(process.o)
                                                  contiki-srf06-cc26xx.a(rf-core.o)
                                                  contiki-srf06-cc26xx.a(serial-line.o)
                                                  contiki-srf06-cc26xx.a(etimer.o)
                                                  contiki-srf06-cc26xx.a(ieee-mode.o)
                                                  contiki-srf06-cc26xx.a(sensors.o)
                                                  contiki-srf06-cc26xx.a(er-coap-engine.)
                                                  obj_srf06-cc26xx/mqtt-client.o
process_post                                      contiki-srf06-cc26xx.a(process.o)
                                                  contiki-srf06-cc26xx.a(tcpip.o)
                                                  contiki-srf06-cc26xx.a(serial-line.o)
                                                  contiki-srf06-cc26xx.a(etimer.o)
                                                  contiki-srf06-cc26xx.a(soc-trng.o)
                                                  contiki-srf06-cc26xx.a(sensors.o)
                                                  contiki-srf06-cc26xx.a(mqtt.o)
                                                  contiki-srf06-cc26xx.a(rest-engine.o)
                                                  obj_srf06-cc26xx/httpd-simple.o
                                                  cc26xx-web-demo.co
process_post_synch                                contiki-srf06-cc26xx.a(process.o)
                                                  contiki-srf06-cc26xx.a(tcpip.o)
                                                  cc26xx-web-demo.co
process_run                                       contiki-srf06-cc26xx.a(process.o)
                                                  contiki-srf06-cc26xx.a(contiki-main.o)
process_start                                     contiki-srf06-cc26xx.a(process.o)
                                                  contiki-srf06-cc26xx.a(tcp-socket.o)
                                                  contiki-srf06-cc26xx.a(serial-line.o)
                                                  contiki-srf06-cc26xx.a(ctimer.o)
                                                  contiki-srf06-cc26xx.a(autostart.o)
                                                  contiki-srf06-cc26xx.a(soc-trng.o)
                                                  contiki-srf06-cc26xx.a(ieee-mode.o)
                                                  contiki-srf06-cc26xx.a(rf-ble.o)
                                                  contiki-srf06-cc26xx.a(contiki-main.o)
                                                  contiki-srf06-cc26xx.a(mqtt.o)
                                                  contiki-srf06-cc26xx.a(rest-engine.o)
                                                  contiki-srf06-cc26xx.a(er-coap-engine.)
                                                  cc26xx-web-demo.co
psock_datalen                                     contiki-srf06-cc26xx.a(psock.o)
                                                  obj_srf06-cc26xx/httpd-simple.o
psock_generator_send                              contiki-srf06-cc26xx.a(psock.o)
psock_init                                        contiki-srf06-cc26xx.a(psock.o)
                                                  obj_srf06-cc26xx/httpd-simple.o
psock_newdata                                     contiki-srf06-cc26xx.a(psock.o)
psock_readbuf_len                                 contiki-srf06-cc26xx.a(psock.o)
                                                  obj_srf06-cc26xx/httpd-simple.o
psock_readto                                      contiki-srf06-cc26xx.a(psock.o)
                                                  obj_srf06-cc26xx/httpd-simple.o
psock_send                                        contiki-srf06-cc26xx.a(psock.o)
                                                  obj_srf06-cc26xx/httpd-simple.o
putchar                                           contiki-srf06-cc26xx.a(putchar.o)
                                                  contiki-srf06-cc26xx.a(uip-debug.o)
                                                  contiki-srf06-cc26xx.a(contiki-main.o)
puts                                              contiki-srf06-cc26xx.a(putchar.o)
                                                  contiki-srf06-cc26xx.a(rf-core.o)
                                                  contiki-srf06-cc26xx.a(rpl-dag.o)
                                                  contiki-srf06-cc26xx.a(contiki-main.o)
                                                  obj_srf06-cc26xx/httpd-simple.o
                                                  obj_srf06-cc26xx/mqtt-client.o
                                                  obj_srf06-cc26xx/net-uart.o
                                                  obj_srf06-cc26xx/coap-server.o
                                                  obj_srf06-cc26xx/cetic-6lbr-client.o
                                                  cc26xx-web-demo.co
queuebuf_addr                                     contiki-srf06-cc26xx.a(queuebuf.o)
queuebuf_attr                                     contiki-srf06-cc26xx.a(queuebuf.o)
                                                  contiki-srf06-cc26xx.a(csma.o)
queuebuf_datalen                                  contiki-srf06-cc26xx.a(queuebuf.o)
queuebuf_dataptr                                  contiki-srf06-cc26xx.a(queuebuf.o)
queuebuf_debug_print                              contiki-srf06-cc26xx.a(queuebuf.o)
queuebuf_free                                     contiki-srf06-cc26xx.a(queuebuf.o)
                                                  contiki-srf06-cc26xx.a(csma.o)
                                                  contiki-srf06-cc26xx.a(sicslowpan.o)
queuebuf_init                                     contiki-srf06-cc26xx.a(queuebuf.o)
                                                  contiki-srf06-cc26xx.a(contiki-main.o)
queuebuf_new_from_packetbuf                       contiki-srf06-cc26xx.a(queuebuf.o)
                                                  contiki-srf06-cc26xx.a(csma.o)
                                                  contiki-srf06-cc26xx.a(sicslowpan.o)
queuebuf_numfree                                  contiki-srf06-cc26xx.a(queuebuf.o)
                                                  contiki-srf06-cc26xx.a(sicslowpan.o)
queuebuf_to_packetbuf                             contiki-srf06-cc26xx.a(queuebuf.o)
                                                  contiki-srf06-cc26xx.a(contikimac.o)
                                                  contiki-srf06-cc26xx.a(sicslowpan.o)
queuebuf_update_attr_from_packetbuf               contiki-srf06-cc26xx.a(queuebuf.o)
                                                  contiki-srf06-cc26xx.a(csma.o)
queuebuf_update_from_packetbuf                    contiki-srf06-cc26xx.a(queuebuf.o)
                                                  contiki-srf06-cc26xx.a(contikimac.o)
random_init                                       contiki-srf06-cc26xx.a(random.o)
                                                  contiki-srf06-cc26xx.a(contiki-main.o)
random_rand                                       contiki-srf06-cc26xx.a(random.o)
                                                  contiki-srf06-cc26xx.a(er-coap.o)
                                                  contiki-srf06-cc26xx.a(csma.o)
                                                  contiki-srf06-cc26xx.a(framer-802154.o)
                                                  contiki-srf06-cc26xx.a(rpl-timers.o)
                                                  contiki-srf06-cc26xx.a(uip-ds6.o)
                                                  contiki-srf06-cc26xx.a(er-coap-transac)
                                                  cc26xx-web-demo.co
rat_offset                                        contiki-srf06-cc26xx.a(rf-core.o)
                                                  contiki-srf06-cc26xx.a(ieee-mode.o)
reconnect_handler                                 obj_srf06-cc26xx/mqtt-client.o
reed_relay_sensor                                 contiki-srf06-cc26xx.a(reed-relay.o)
                                                  contiki-srf06-cc26xx.a(sensortag-senso)
                                                  obj_srf06-cc26xx/mqtt-client.o
                                                  cc26xx-web-demo.co
remote_ipv6_handler                               obj_srf06-cc26xx/net-uart.o
remote_port_handler                               obj_srf06-cc26xx/net-uart.o
remove_ext_hdr                                    contiki-srf06-cc26xx.a(uip6.o)
res_batmon_temp                                   obj_srf06-cc26xx/res-sensors.o
                                                  obj_srf06-cc26xx/coap-server.o
res_batmon_volt                                   obj_srf06-cc26xx/res-sensors.o
                                                  obj_srf06-cc26xx/coap-server.o
res_ble_advd                                      obj_srf06-cc26xx/res-ble-advd.o
                                                  obj_srf06-cc26xx/coap-server.o
res_bmp280_press                                  obj_srf06-cc26xx/res-sensors.o
                                                  obj_srf06-cc26xx/coap-server.o
res_bmp280_temp                                   obj_srf06-cc26xx/res-sensors.o
                                                  obj_srf06-cc26xx/coap-server.o
res_device_cfg_reset                              obj_srf06-cc26xx/res-device.o
                                                  obj_srf06-cc26xx/coap-server.o
res_device_hw                                     obj_srf06-cc26xx/res-device.o
                                                  obj_srf06-cc26xx/coap-server.o
res_device_sw                                     obj_srf06-cc26xx/res-device.o
                                                  obj_srf06-cc26xx/coap-server.o
res_device_uptime                                 obj_srf06-cc26xx/res-device.o
                                                  obj_srf06-cc26xx/coap-server.o
res_hdc1000_hum                                   obj_srf06-cc26xx/res-sensors.o
                                                  obj_srf06-cc26xx/coap-server.o
res_hdc1000_temp                                  obj_srf06-cc26xx/res-sensors.o
                                                  obj_srf06-cc26xx/coap-server.o
res_leds                                          obj_srf06-cc26xx/res-leds.o
                                                  obj_srf06-cc26xx/coap-server.o
res_mpu_acc_x                                     obj_srf06-cc26xx/res-sensors.o
                                                  obj_srf06-cc26xx/coap-server.o
res_mpu_acc_y                                     obj_srf06-cc26xx/res-sensors.o
                                                  obj_srf06-cc26xx/coap-server.o
res_mpu_acc_z                                     obj_srf06-cc26xx/res-sensors.o
                                                  obj_srf06-cc26xx/coap-server.o
res_mpu_gyro_x                                    obj_srf06-cc26xx/res-sensors.o
                                                  obj_srf06-cc26xx/coap-server.o
res_mpu_gyro_y                                    obj_srf06-cc26xx/res-sensors.o
                                                  obj_srf06-cc26xx/coap-server.o
res_mpu_gyro_z                                    obj_srf06-cc26xx/res-sensors.o
                                                  obj_srf06-cc26xx/coap-server.o
res_opt3001_light                                 obj_srf06-cc26xx/res-sensors.o
                                                  obj_srf06-cc26xx/coap-server.o
res_parent_ip                                     obj_srf06-cc26xx/res-net.o
                                                  obj_srf06-cc26xx/coap-server.o
res_parent_rssi                                   obj_srf06-cc26xx/res-net.o
                                                  obj_srf06-cc26xx/coap-server.o
res_tmp007_amb                                    obj_srf06-cc26xx/res-sensors.o
                                                  obj_srf06-cc26xx/coap-server.o
res_tmp007_obj                                    obj_srf06-cc26xx/res-sensors.o
                                                  obj_srf06-cc26xx/coap-server.o
res_toggle_green                                  obj_srf06-cc26xx/res-toggle-leds.o
                                                  obj_srf06-cc26xx/coap-server.o
res_toggle_red                                    obj_srf06-cc26xx/res-toggle-leds.o
                                                  obj_srf06-cc26xx/coap-server.o
res_well_known_core                               contiki-srf06-cc26xx.a(er-coap-res-wel)
                                                  contiki-srf06-cc26xx.a(er-coap-engine.)
rest_activate_resource                            contiki-srf06-cc26xx.a(rest-engine.o)
                                                  contiki-srf06-cc26xx.a(er-coap-engine.)
                                                  obj_srf06-cc26xx/coap-server.o
rest_engine_process                               contiki-srf06-cc26xx.a(rest-engine.o)
rest_get_resources                                contiki-srf06-cc26xx.a(rest-engine.o)
                                                  contiki-srf06-cc26xx.a(er-coap-res-wel)
rest_init_engine                                  contiki-srf06-cc26xx.a(rest-engine.o)
                                                  obj_srf06-cc26xx/coap-server.o
rest_invoke_restful_service                       contiki-srf06-cc26xx.a(rest-engine.o)
rf_ble_beacon_process                             contiki-srf06-cc26xx.a(rf-ble.o)
rf_ble_beacond_config                             contiki-srf06-cc26xx.a(rf-ble.o)
                                                  obj_srf06-cc26xx/res-ble-advd.o
rf_ble_beacond_start                              contiki-srf06-cc26xx.a(rf-ble.o)
                                                  obj_srf06-cc26xx/res-ble-advd.o
rf_ble_beacond_stop                               contiki-srf06-cc26xx.a(rf-ble.o)
                                                  obj_srf06-cc26xx/res-ble-advd.o
rf_ble_is_active                                  contiki-srf06-cc26xx.a(rf-ble.o)
                                                  contiki-srf06-cc26xx.a(ieee-mode.o)
rf_core_boot                                      contiki-srf06-cc26xx.a(rf-core.o)
                                                  contiki-srf06-cc26xx.a(ieee-mode.o)
                                                  contiki-srf06-cc26xx.a(rf-ble.o)
rf_core_cmd_done_dis                              contiki-srf06-cc26xx.a(rf-core.o)
                                                  contiki-srf06-cc26xx.a(ieee-mode.o)
rf_core_cmd_done_en                               contiki-srf06-cc26xx.a(rf-core.o)
                                                  contiki-srf06-cc26xx.a(ieee-mode.o)
rf_core_get_last_radio_op                         contiki-srf06-cc26xx.a(rf-core.o)
                                                  contiki-srf06-cc26xx.a(ieee-mode.o)
rf_core_init_radio_op                             contiki-srf06-cc26xx.a(rf-core.o)
                                                  contiki-srf06-cc26xx.a(ieee-mode.o)
                                                  contiki-srf06-cc26xx.a(rf-ble.o)
rf_core_is_accessible                             contiki-srf06-cc26xx.a(rf-core.o)
                                                  contiki-srf06-cc26xx.a(ieee-mode.o)
                                                  contiki-srf06-cc26xx.a(rf-ble.o)
rf_core_power_down                                contiki-srf06-cc26xx.a(rf-core.o)
                                                  contiki-srf06-cc26xx.a(ieee-mode.o)
                                                  contiki-srf06-cc26xx.a(rf-ble.o)
rf_core_power_up                                  contiki-srf06-cc26xx.a(rf-core.o)
rf_core_primary_mode_abort                        contiki-srf06-cc26xx.a(rf-core.o)
                                                  contiki-srf06-cc26xx.a(rf-ble.o)
rf_core_primary_mode_register                     contiki-srf06-cc26xx.a(rf-core.o)
                                                  contiki-srf06-cc26xx.a(ieee-mode.o)
rf_core_primary_mode_restore                      contiki-srf06-cc26xx.a(rf-core.o)
                                                  contiki-srf06-cc26xx.a(rf-ble.o)
rf_core_process                                   contiki-srf06-cc26xx.a(rf-core.o)
                                                  contiki-srf06-cc26xx.a(ieee-mode.o)
rf_core_restart_rat                               contiki-srf06-cc26xx.a(rf-core.o)
                                                  contiki-srf06-cc26xx.a(ieee-mode.o)
rf_core_send_cmd                                  contiki-srf06-cc26xx.a(rf-core.o)
                                                  contiki-srf06-cc26xx.a(ieee-mode.o)
                                                  contiki-srf06-cc26xx.a(rf-ble.o)
rf_core_set_modesel                               contiki-srf06-cc26xx.a(rf-core.o)
                                                  contiki-srf06-cc26xx.a(ieee-mode.o)
rf_core_setup_interrupts                          contiki-srf06-cc26xx.a(rf-core.o)
                                                  contiki-srf06-cc26xx.a(ieee-mode.o)
rf_core_start_rat                                 contiki-srf06-cc26xx.a(rf-core.o)
rf_core_stop_rat                                  contiki-srf06-cc26xx.a(rf-core.o)
rf_core_wait_cmd_done                             contiki-srf06-cc26xx.a(rf-core.o)
                                                  contiki-srf06-cc26xx.a(ieee-mode.o)
                                                  contiki-srf06-cc26xx.a(rf-ble.o)
rime_sniffer_add                                  contiki-srf06-cc26xx.a(sicslowpan.o)
rime_sniffer_remove                               contiki-srf06-cc26xx.a(sicslowpan.o)
ringbuf_elements                                  contiki-srf06-cc26xx.a(ringbuf.o)
ringbuf_get                                       contiki-srf06-cc26xx.a(ringbuf.o)
                                                  contiki-srf06-cc26xx.a(serial-line.o)
ringbuf_init                                      contiki-srf06-cc26xx.a(ringbuf.o)
                                                  contiki-srf06-cc26xx.a(serial-line.o)
ringbuf_put                                       contiki-srf06-cc26xx.a(ringbuf.o)
                                                  contiki-srf06-cc26xx.a(serial-line.o)
ringbuf_size                                      contiki-srf06-cc26xx.a(ringbuf.o)
rint                                              /usr/lib/gcc/arm-none-eabi/5.4.1/../../../arm-none-eabi/lib/armv7-m/libm.a(lib_a-s_rint.o)
                                                  /usr/lib/gcc/arm-none-eabi/5.4.1/../../../arm-none-eabi/lib/armv7-m/libm.a(lib_a-w_pow.o)
rpl_add_dag                                       contiki-srf06-cc26xx.a(rpl-dag.o)
rpl_add_parent                                    contiki-srf06-cc26xx.a(rpl-dag.o)
rpl_add_route                                     contiki-srf06-cc26xx.a(rpl.o)
                                                  contiki-srf06-cc26xx.a(rpl-icmp6.o)
rpl_alloc_dag                                     contiki-srf06-cc26xx.a(rpl-dag.o)
rpl_alloc_instance                                contiki-srf06-cc26xx.a(rpl-dag.o)
rpl_cancel_dao                                    contiki-srf06-cc26xx.a(rpl-timers.o)
                                                  contiki-srf06-cc26xx.a(rpl.o)
rpl_dag_init                                      contiki-srf06-cc26xx.a(rpl-dag.o)
                                                  contiki-srf06-cc26xx.a(rpl.o)
rpl_find_of                                       contiki-srf06-cc26xx.a(rpl-dag.o)
rpl_find_parent                                   contiki-srf06-cc26xx.a(rpl-dag.o)
                                                  contiki-srf06-cc26xx.a(rpl-icmp6.o)
rpl_find_parent_any_dag                           contiki-srf06-cc26xx.a(rpl-dag.o)
                                                  contiki-srf06-cc26xx.a(rpl.o)
rpl_free_dag                                      contiki-srf06-cc26xx.a(rpl-dag.o)
                                                  contiki-srf06-cc26xx.a(rpl.o)
rpl_free_instance                                 contiki-srf06-cc26xx.a(rpl-dag.o)
rpl_get_any_dag                                   contiki-srf06-cc26xx.a(rpl-dag.o)
                                                  contiki-srf06-cc26xx.a(rpl-timers.o)
                                                  obj_srf06-cc26xx/cetic-6lbr-client.o
rpl_get_dag                                       contiki-srf06-cc26xx.a(rpl-dag.o)
                                                  contiki-srf06-cc26xx.a(rpl-ext-header.)
rpl_get_default_instance                          contiki-srf06-cc26xx.a(rpl-dag.o)
rpl_get_instance                                  contiki-srf06-cc26xx.a(rpl-dag.o)
                                                  contiki-srf06-cc26xx.a(rpl-nbr-policy.)
                                                  contiki-srf06-cc26xx.a(rpl-icmp6.o)
                                                  contiki-srf06-cc26xx.a(rpl-ext-header.)
rpl_get_mode                                      contiki-srf06-cc26xx.a(rpl.o)
                                                  contiki-srf06-cc26xx.a(rpl-icmp6.o)
                                                  contiki-srf06-cc26xx.a(rpl-timers.o)
rpl_get_nbr                                       contiki-srf06-cc26xx.a(rpl-dag.o)
rpl_get_parent                                    contiki-srf06-cc26xx.a(rpl-dag.o)
                                                  contiki-srf06-cc26xx.a(rpl-nbr-policy.)
                                                  contiki-srf06-cc26xx.a(rpl-ext-header.)
rpl_get_parent_ipaddr                             contiki-srf06-cc26xx.a(rpl-dag.o)
                                                  contiki-srf06-cc26xx.a(rpl-icmp6.o)
                                                  contiki-srf06-cc26xx.a(rpl-timers.o)
rpl_get_parent_link_metric                        contiki-srf06-cc26xx.a(rpl-dag.o)
rpl_get_parent_link_stats                         contiki-srf06-cc26xx.a(rpl-dag.o)
                                                  contiki-srf06-cc26xx.a(rpl-mrhof.o)
                                                  contiki-srf06-cc26xx.a(rpl-timers.o)
rpl_get_parent_lladdr                             contiki-srf06-cc26xx.a(rpl-dag.o)
rpl_get_parent_rank                               contiki-srf06-cc26xx.a(rpl-dag.o)
rpl_has_downward_route                            contiki-srf06-cc26xx.a(rpl-dag.o)
rpl_icmp6_register_handlers                       contiki-srf06-cc26xx.a(rpl-icmp6.o)
                                                  contiki-srf06-cc26xx.a(rpl.o)
rpl_icmp6_update_nbr_table                        contiki-srf06-cc26xx.a(rpl-icmp6.o)
                                                  contiki-srf06-cc26xx.a(rpl-dag.o)
rpl_init                                          contiki-srf06-cc26xx.a(rpl.o)
                                                  contiki-srf06-cc26xx.a(tcpip.o)
rpl_ipv6_neighbor_callback                        contiki-srf06-cc26xx.a(rpl.o)
                                                  contiki-srf06-cc26xx.a(uip-ds6-nbr.o)
rpl_join_instance                                 contiki-srf06-cc26xx.a(rpl-dag.o)
rpl_link_neighbor_callback                        contiki-srf06-cc26xx.a(rpl.o)
                                                  contiki-srf06-cc26xx.a(uip-ds6-nbr.o)
rpl_local_repair                                  contiki-srf06-cc26xx.a(rpl-dag.o)
rpl_move_parent                                   contiki-srf06-cc26xx.a(rpl-dag.o)
rpl_mrhof                                         contiki-srf06-cc26xx.a(rpl-mrhof.o)
                                                  contiki-srf06-cc26xx.a(rpl-dag.o)
rpl_nbr_policy_find_removable                     contiki-srf06-cc26xx.a(rpl-nbr-policy.)
                                                  contiki-srf06-cc26xx.a(nbr-table.o)
rpl_nullify_parent                                contiki-srf06-cc26xx.a(rpl-dag.o)
rpl_parent_is_fresh                               contiki-srf06-cc26xx.a(rpl-dag.o)
                                                  contiki-srf06-cc26xx.a(rpl-timers.o)
rpl_parent_is_reachable                           contiki-srf06-cc26xx.a(rpl-dag.o)
rpl_parents                                       contiki-srf06-cc26xx.a(rpl-dag.o)
                                                  contiki-srf06-cc26xx.a(rpl-ext-header.)
                                                  contiki-srf06-cc26xx.a(rpl-timers.o)
rpl_print_neighbor_list                           contiki-srf06-cc26xx.a(rpl-dag.o)
rpl_process_dio                                   contiki-srf06-cc26xx.a(rpl-dag.o)
                                                  contiki-srf06-cc26xx.a(rpl-icmp6.o)
rpl_process_parent_event                          contiki-srf06-cc26xx.a(rpl-dag.o)
rpl_purge_dags                                    contiki-srf06-cc26xx.a(rpl.o)
                                                  contiki-srf06-cc26xx.a(rpl-timers.o)
rpl_purge_routes                                  contiki-srf06-cc26xx.a(rpl.o)
                                                  contiki-srf06-cc26xx.a(rpl-timers.o)
rpl_rank_via_parent                               contiki-srf06-cc26xx.a(rpl-dag.o)
                                                  contiki-srf06-cc26xx.a(rpl-timers.o)
rpl_recalculate_ranks                             contiki-srf06-cc26xx.a(rpl-dag.o)
                                                  contiki-srf06-cc26xx.a(rpl-timers.o)
rpl_remove_header                                 contiki-srf06-cc26xx.a(rpl-ext-header.)
                                                  contiki-srf06-cc26xx.a(uip-icmp6.o)
rpl_remove_parent                                 contiki-srf06-cc26xx.a(rpl-dag.o)
rpl_remove_routes                                 contiki-srf06-cc26xx.a(rpl.o)
                                                  contiki-srf06-cc26xx.a(rpl-dag.o)
rpl_remove_routes_by_nexthop                      contiki-srf06-cc26xx.a(rpl.o)
                                                  contiki-srf06-cc26xx.a(rpl-dag.o)
rpl_repair_root                                   contiki-srf06-cc26xx.a(rpl-dag.o)
                                                  contiki-srf06-cc26xx.a(tcpip.o)
rpl_reset_dio_timer                               contiki-srf06-cc26xx.a(rpl-timers.o)
                                                  contiki-srf06-cc26xx.a(rpl-icmp6.o)
                                                  contiki-srf06-cc26xx.a(rpl-ext-header.)
                                                  contiki-srf06-cc26xx.a(rpl-dag.o)
rpl_reset_periodic_timer                          contiki-srf06-cc26xx.a(rpl-timers.o)
                                                  contiki-srf06-cc26xx.a(rpl.o)
rpl_schedule_dao                                  contiki-srf06-cc26xx.a(rpl-timers.o)
                                                  contiki-srf06-cc26xx.a(rpl-dag.o)
rpl_schedule_dao_immediately                      contiki-srf06-cc26xx.a(rpl-timers.o)
                                                  contiki-srf06-cc26xx.a(rpl.o)
rpl_schedule_probing                              contiki-srf06-cc26xx.a(rpl-timers.o)
                                                  contiki-srf06-cc26xx.a(rpl-dag.o)
rpl_schedule_unicast_dio_immediately              contiki-srf06-cc26xx.a(rpl-timers.o)
                                                  contiki-srf06-cc26xx.a(rpl-ext-header.)
rpl_select_dag                                    contiki-srf06-cc26xx.a(rpl-dag.o)
rpl_select_parent                                 contiki-srf06-cc26xx.a(rpl-dag.o)
rpl_set_default_instance                          contiki-srf06-cc26xx.a(rpl-dag.o)
rpl_set_default_route                             contiki-srf06-cc26xx.a(rpl-dag.o)
rpl_set_mode                                      contiki-srf06-cc26xx.a(rpl.o)
rpl_set_prefix                                    contiki-srf06-cc26xx.a(rpl-dag.o)
rpl_set_root                                      contiki-srf06-cc26xx.a(rpl-dag.o)
rpl_update_header                                 contiki-srf06-cc26xx.a(rpl-ext-header.)
                                                  contiki-srf06-cc26xx.a(tcpip.o)
rpl_verify_hbh_header                             contiki-srf06-cc26xx.a(rpl-ext-header.)
                                                  contiki-srf06-cc26xx.a(uip6.o)
rtimer_arch_init                                  contiki-srf06-cc26xx.a(rtimer-arch.o)
                                                  contiki-srf06-cc26xx.a(rtimer.o)
rtimer_arch_now                                   contiki-srf06-cc26xx.a(rtimer-arch.o)
                                                  contiki-srf06-cc26xx.a(contikimac.o)
                                                  contiki-srf06-cc26xx.a(ieee-mode.o)
                                                  contiki-srf06-cc26xx.a(lpm.o)
                                                  contiki-srf06-cc26xx.a(soc-rtc.o)
                                                  contiki-srf06-cc26xx.a(board-i2c.o)
                                                  contiki-srf06-cc26xx.a(mpu-9250-sensor)
rtimer_arch_schedule                              contiki-srf06-cc26xx.a(rtimer-arch.o)
                                                  contiki-srf06-cc26xx.a(rtimer.o)
rtimer_init                                       contiki-srf06-cc26xx.a(rtimer.o)
                                                  contiki-srf06-cc26xx.a(contiki-main.o)
rtimer_run_next                                   contiki-srf06-cc26xx.a(rtimer.o)
                                                  contiki-srf06-cc26xx.a(soc-rtc.o)
rtimer_set                                        contiki-srf06-cc26xx.a(rtimer.o)
                                                  contiki-srf06-cc26xx.a(contikimac.o)
scalbn                                            /usr/lib/gcc/arm-none-eabi/5.4.1/../../../arm-none-eabi/lib/armv7-m/libm.a(lib_a-s_scalbn.o)
                                                  /usr/lib/gcc/arm-none-eabi/5.4.1/../../../arm-none-eabi/lib/armv7-m/libm.a(lib_a-e_pow.o)
sensor_common_read_reg                            contiki-srf06-cc26xx.a(sensor-common.o)
                                                  contiki-srf06-cc26xx.a(mpu-9250-sensor)
                                                  contiki-srf06-cc26xx.a(opt-3001-sensor)
                                                  contiki-srf06-cc26xx.a(tmp-007-sensor.)
                                                  contiki-srf06-cc26xx.a(bmp-280-sensor.)
sensor_common_set_error_data                      contiki-srf06-cc26xx.a(sensor-common.o)
                                                  contiki-srf06-cc26xx.a(mpu-9250-sensor)
                                                  contiki-srf06-cc26xx.a(opt-3001-sensor)
                                                  contiki-srf06-cc26xx.a(tmp-007-sensor.)
                                                  contiki-srf06-cc26xx.a(bmp-280-sensor.)
sensor_common_write_reg                           contiki-srf06-cc26xx.a(sensor-common.o)
                                                  contiki-srf06-cc26xx.a(mpu-9250-sensor)
                                                  contiki-srf06-cc26xx.a(hdc-1000-sensor)
                                                  contiki-srf06-cc26xx.a(opt-3001-sensor)
                                                  contiki-srf06-cc26xx.a(tmp-007-sensor.)
                                                  contiki-srf06-cc26xx.a(bmp-280-sensor.)
sensor_handler                                    cc26xx-web-demo.co
sensors                                           contiki-srf06-cc26xx.a(sensortag-senso)
                                                  contiki-srf06-cc26xx.a(sensors.o)
sensors_changed                                   contiki-srf06-cc26xx.a(sensors.o)
                                                  contiki-srf06-cc26xx.a(reed-relay.o)
                                                  contiki-srf06-cc26xx.a(button-sensor.o)
                                                  contiki-srf06-cc26xx.a(mpu-9250-sensor)
                                                  contiki-srf06-cc26xx.a(hdc-1000-sensor)
                                                  contiki-srf06-cc26xx.a(opt-3001-sensor)
                                                  contiki-srf06-cc26xx.a(tmp-007-sensor.)
                                                  contiki-srf06-cc26xx.a(bmp-280-sensor.)
sensors_event                                     contiki-srf06-cc26xx.a(sensors.o)
                                                  obj_srf06-cc26xx/mqtt-client.o
                                                  cc26xx-web-demo.co
sensors_find                                      contiki-srf06-cc26xx.a(sensors.o)
sensors_first                                     contiki-srf06-cc26xx.a(sensors.o)
sensors_flags                                     contiki-srf06-cc26xx.a(sensortag-senso)
                                                  contiki-srf06-cc26xx.a(sensors.o)
sensors_next                                      contiki-srf06-cc26xx.a(sensors.o)
sensors_process                                   contiki-srf06-cc26xx.a(sensors.o)
                                                  contiki-srf06-cc26xx.a(contiki-main.o)
serial_line_event_message                         contiki-srf06-cc26xx.a(serial-line.o)
                                                  obj_srf06-cc26xx/net-uart.o
serial_line_init                                  contiki-srf06-cc26xx.a(serial-line.o)
                                                  contiki-srf06-cc26xx.a(contiki-main.o)
serial_line_input_byte                            contiki-srf06-cc26xx.a(serial-line.o)
                                                  obj_srf06-cc26xx/net-uart.o
serial_line_process                               contiki-srf06-cc26xx.a(serial-line.o)
sicslowpan_driver                                 contiki-srf06-cc26xx.a(sicslowpan.o)
                                                  contiki-srf06-cc26xx.a(nullsec.o)
                                                  contiki-srf06-cc26xx.a(netstack.o)
                                                  contiki-srf06-cc26xx.a(contiki-main.o)
sicslowpan_get_last_rssi                          contiki-srf06-cc26xx.a(sicslowpan.o)
                                                  cc26xx-web-demo.co
sicslowpan_init                                   contiki-srf06-cc26xx.a(sicslowpan.o)
snprintf                                          contiki-srf06-cc26xx.a(dbg-snprintf.o)
                                                  contiki-srf06-cc26xx.a(er-coap-res-wel)
                                                  obj_srf06-cc26xx/httpd-simple.o
                                                  obj_srf06-cc26xx/mqtt-client.o
                                                  obj_srf06-cc26xx/res-net.o
                                                  obj_srf06-cc26xx/res-sensors.o
                                                  obj_srf06-cc26xx/res-device.o
                                                  cc26xx-web-demo.co
soc_rtc_get_next_trigger                          contiki-srf06-cc26xx.a(soc-rtc.o)
soc_rtc_init                                      contiki-srf06-cc26xx.a(soc-rtc.o)
                                                  contiki-srf06-cc26xx.a(contiki-main.o)
soc_rtc_last_isr_time                             contiki-srf06-cc26xx.a(soc-rtc.o)
                                                  contiki-srf06-cc26xx.a(lpm.o)
soc_rtc_schedule_one_shot                         contiki-srf06-cc26xx.a(soc-rtc.o)
                                                  contiki-srf06-cc26xx.a(lpm.o)
                                                  contiki-srf06-cc26xx.a(rtimer-arch.o)
soc_trng_init                                     contiki-srf06-cc26xx.a(soc-trng.o)
                                                  contiki-srf06-cc26xx.a(random.o)
soc_trng_process                                  contiki-srf06-cc26xx.a(soc-trng.o)
soc_trng_rand_asynchronous                        contiki-srf06-cc26xx.a(soc-trng.o)
soc_trng_rand_synchronous                         contiki-srf06-cc26xx.a(soc-trng.o)
                                                  contiki-srf06-cc26xx.a(random.o)
sprintf                                           contiki-srf06-cc26xx.a(dbg-sprintf.o)
                                                  obj_srf06-cc26xx/cetic-6lbr-client.o
                                                  cc26xx-web-demo.co
stimer_elapsed                                    contiki-srf06-cc26xx.a(stimer.o)
stimer_expired                                    contiki-srf06-cc26xx.a(stimer.o)
                                                  contiki-srf06-cc26xx.a(uip-ds6-route.o)
                                                  contiki-srf06-cc26xx.a(uip-ds6.o)
stimer_remaining                                  contiki-srf06-cc26xx.a(stimer.o)
stimer_reset                                      contiki-srf06-cc26xx.a(stimer.o)
stimer_restart                                    contiki-srf06-cc26xx.a(stimer.o)
stimer_set                                        contiki-srf06-cc26xx.a(stimer.o)
                                                  contiki-srf06-cc26xx.a(uip-ds6-route.o)
                                                  contiki-srf06-cc26xx.a(uip-ds6.o)
strchr                                            /usr/lib/gcc/arm-none-eabi/5.4.1/../../../arm-none-eabi/lib/armv7-m/libc.a(lib_a-strchr.o)
                                                  contiki-srf06-cc26xx.a(er-coap.o)
strlen                                            /usr/lib/gcc/arm-none-eabi/5.4.1/../../../arm-none-eabi/lib/armv7-m/libc.a(lib_a-strlen-stub.o)
                                                  contiki-srf06-cc26xx.a(er-coap.o)
                                                  contiki-srf06-cc26xx.a(tcp-socket.o)
                                                  contiki-srf06-cc26xx.a(rf-ble.o)
                                                  contiki-srf06-cc26xx.a(putchar.o)
                                                  contiki-srf06-cc26xx.a(sensors.o)
                                                  contiki-srf06-cc26xx.a(mqtt.o)
                                                  contiki-srf06-cc26xx.a(rest-engine.o)
                                                  contiki-srf06-cc26xx.a(er-coap-res-wel)
                                                  contiki-srf06-cc26xx.a(er-coap-observe)
                                                  contiki-srf06-cc26xx.a(er-coap-engine.)
                                                  obj_srf06-cc26xx/httpd-simple.o
                                                  obj_srf06-cc26xx/mqtt-client.o
                                                  obj_srf06-cc26xx/net-uart.o
                                                  obj_srf06-cc26xx/cetic-6lbr-client.o
                                                  obj_srf06-cc26xx/res-net.o
                                                  obj_srf06-cc26xx/res-ble-advd.o
                                                  obj_srf06-cc26xx/res-sensors.o
                                                  obj_srf06-cc26xx/res-device.o
                                                  cc26xx-web-demo.co
strncasecmp                                       /usr/lib/gcc/arm-none-eabi/5.4.1/../../../arm-none-eabi/lib/armv7-m/libc.a(lib_a-strncasecmp.o)
                                                  obj_srf06-cc26xx/httpd-simple.o
                                                  obj_srf06-cc26xx/mqtt-client.o
                                                  obj_srf06-cc26xx/net-uart.o
                                                  cc26xx-web-demo.co
strncmp                                           /usr/lib/gcc/arm-none-eabi/5.4.1/../../../arm-none-eabi/lib/armv7-m/libc.a(lib_a-strncmp.o)
                                                  contiki-srf06-cc26xx.a(er-coap.o)
                                                  contiki-srf06-cc26xx.a(sensors.o)
                                                  contiki-srf06-cc26xx.a(rest-engine.o)
                                                  contiki-srf06-cc26xx.a(er-coap-observe)
                                                  obj_srf06-cc26xx/httpd-simple.o
                                                  obj_srf06-cc26xx/mqtt-client.o
                                                  obj_srf06-cc26xx/res-ble-advd.o
                                                  obj_srf06-cc26xx/res-leds.o
                                                  cc26xx-web-demo.co
strncpy                                           /usr/lib/gcc/arm-none-eabi/5.4.1/../../../arm-none-eabi/lib/armv7-m/libc.a(lib_a-strncpy.o)
                                                  contiki-srf06-cc26xx.a(er-coap-observe)
                                                  obj_srf06-cc26xx/httpd-simple.o
strtol                                            /usr/lib/gcc/arm-none-eabi/5.4.1/../../../arm-none-eabi/lib/armv7-m/libc.a(lib_a-strtol.o)
                                                  /usr/lib/gcc/arm-none-eabi/5.4.1/../../../arm-none-eabi/lib/armv7-m/libc.a(lib_a-atoi.o)
t0                                                contiki-srf06-cc26xx.a(mpu-9250-sensor)
tcp_attach                                        contiki-srf06-cc26xx.a(tcpip.o)
                                                  contiki-srf06-cc26xx.a(tcp-socket.o)
                                                  obj_srf06-cc26xx/httpd-simple.o
tcp_connect                                       contiki-srf06-cc26xx.a(tcpip.o)
                                                  contiki-srf06-cc26xx.a(tcp-socket.o)
tcp_listen                                        contiki-srf06-cc26xx.a(tcpip.o)
                                                  contiki-srf06-cc26xx.a(tcp-socket.o)
                                                  obj_srf06-cc26xx/httpd-simple.o
tcp_socket_close                                  contiki-srf06-cc26xx.a(tcp-socket.o)
                                                  contiki-srf06-cc26xx.a(mqtt.o)
tcp_socket_connect                                contiki-srf06-cc26xx.a(tcp-socket.o)
                                                  contiki-srf06-cc26xx.a(mqtt.o)
tcp_socket_listen                                 contiki-srf06-cc26xx.a(tcp-socket.o)
tcp_socket_max_sendlen                            contiki-srf06-cc26xx.a(tcp-socket.o)
tcp_socket_process                                contiki-srf06-cc26xx.a(tcp-socket.o)
tcp_socket_queuelen                               contiki-srf06-cc26xx.a(tcp-socket.o)
tcp_socket_register                               contiki-srf06-cc26xx.a(tcp-socket.o)
                                                  contiki-srf06-cc26xx.a(mqtt.o)
tcp_socket_send                                   contiki-srf06-cc26xx.a(tcp-socket.o)
                                                  contiki-srf06-cc26xx.a(mqtt.o)
tcp_socket_send_str                               contiki-srf06-cc26xx.a(tcp-socket.o)
tcp_socket_unlisten                               contiki-srf06-cc26xx.a(tcp-socket.o)
tcp_socket_unregister                             contiki-srf06-cc26xx.a(tcp-socket.o)
                                                  contiki-srf06-cc26xx.a(mqtt.o)
tcp_unlisten                                      contiki-srf06-cc26xx.a(tcpip.o)
                                                  contiki-srf06-cc26xx.a(tcp-socket.o)
tcpip_event                                       contiki-srf06-cc26xx.a(tcpip.o)
                                                  contiki-srf06-cc26xx.a(tcp-socket.o)
                                                  contiki-srf06-cc26xx.a(er-coap-engine.)
                                                  obj_srf06-cc26xx/httpd-simple.o
                                                  obj_srf06-cc26xx/net-uart.o
                                                  obj_srf06-cc26xx/cetic-6lbr-client.o
tcpip_icmp6_call                                  contiki-srf06-cc26xx.a(tcpip.o)
                                                  contiki-srf06-cc26xx.a(uip6.o)
tcpip_icmp6_event                                 contiki-srf06-cc26xx.a(tcpip.o)
tcpip_input                                       contiki-srf06-cc26xx.a(tcpip.o)
                                                  contiki-srf06-cc26xx.a(sicslowpan.o)
tcpip_ipv6_output                                 contiki-srf06-cc26xx.a(tcpip.o)
                                                  contiki-srf06-cc26xx.a(uip-udp-packet.)
                                                  contiki-srf06-cc26xx.a(uip-icmp6.o)
tcpip_output                                      contiki-srf06-cc26xx.a(tcpip.o)
tcpip_poll_tcp                                    contiki-srf06-cc26xx.a(tcpip.o)
                                                  contiki-srf06-cc26xx.a(tcp-socket.o)
tcpip_poll_udp                                    contiki-srf06-cc26xx.a(tcpip.o)
tcpip_process                                     contiki-srf06-cc26xx.a(tcpip.o)
                                                  contiki-srf06-cc26xx.a(contiki-main.o)
tcpip_set_outputfunc                              contiki-srf06-cc26xx.a(tcpip.o)
                                                  contiki-srf06-cc26xx.a(sicslowpan.o)
tcpip_uipcall                                     contiki-srf06-cc26xx.a(tcpip.o)
                                                  contiki-srf06-cc26xx.a(uip6.o)
timer_expired                                     contiki-srf06-cc26xx.a(timer.o)
                                                  contiki-srf06-cc26xx.a(sicslowpan.o)
                                                  contiki-srf06-cc26xx.a(etimer.o)
                                                  contiki-srf06-cc26xx.a(reed-relay.o)
                                                  contiki-srf06-cc26xx.a(button-sensor.o)
                                                  contiki-srf06-cc26xx.a(mqtt.o)
                                                  obj_srf06-cc26xx/httpd-simple.o
                                                  obj_srf06-cc26xx/mqtt-client.o
timer_remaining                                   contiki-srf06-cc26xx.a(timer.o)
timer_reset                                       contiki-srf06-cc26xx.a(timer.o)
                                                  contiki-srf06-cc26xx.a(etimer.o)
timer_restart                                     contiki-srf06-cc26xx.a(timer.o)
                                                  contiki-srf06-cc26xx.a(etimer.o)
                                                  obj_srf06-cc26xx/httpd-simple.o
timer_set                                         contiki-srf06-cc26xx.a(timer.o)
                                                  contiki-srf06-cc26xx.a(sicslowpan.o)
                                                  contiki-srf06-cc26xx.a(etimer.o)
                                                  contiki-srf06-cc26xx.a(reed-relay.o)
                                                  contiki-srf06-cc26xx.a(button-sensor.o)
                                                  contiki-srf06-cc26xx.a(mqtt.o)
                                                  obj_srf06-cc26xx/httpd-simple.o
                                                  obj_srf06-cc26xx/mqtt-client.o
tmp_007_sensor                                    contiki-srf06-cc26xx.a(tmp-007-sensor.)
                                                  contiki-srf06-cc26xx.a(board.o)
                                                  contiki-srf06-cc26xx.a(sensortag-senso)
                                                  cc26xx-web-demo.co
tmp_amb_reading                                   cc26xx-web-demo.co
tmp_obj_reading                                   cc26xx-web-demo.co
tmp_timer                                         cc26xx-web-demo.co
tx_power_current                                  contiki-srf06-cc26xx.a(ieee-mode.o)
type_id_handler                                   obj_srf06-cc26xx/mqtt-client.o
uDMAErrIntHandler                                 obj_srf06-cc26xx/startup_gcc.o
uDMAIntHandler                                    obj_srf06-cc26xx/startup_gcc.o
udp_attach                                        contiki-srf06-cc26xx.a(tcpip.o)
udp_broadcast_new                                 contiki-srf06-cc26xx.a(tcpip.o)
udp_new                                           contiki-srf06-cc26xx.a(tcpip.o)
                                                  contiki-srf06-cc26xx.a(er-coap.o)
                                                  obj_srf06-cc26xx/net-uart.o
                                                  obj_srf06-cc26xx/cetic-6lbr-client.o
uip_acc32                                         contiki-srf06-cc26xx.a(uip6.o)
uip_add32                                         contiki-srf06-cc26xx.a(uip6.o)
uip_aligned_buf                                   contiki-srf06-cc26xx.a(uip6.o)
                                                  contiki-srf06-cc26xx.a(rpl-nbr-policy.)
                                                  contiki-srf06-cc26xx.a(rpl-icmp6.o)
                                                  contiki-srf06-cc26xx.a(rpl-ext-header.)
                                                  contiki-srf06-cc26xx.a(tcpip.o)
                                                  contiki-srf06-cc26xx.a(uip-udp-packet.)
                                                  contiki-srf06-cc26xx.a(sicslowpan.o)
                                                  contiki-srf06-cc26xx.a(uip-nd6.o)
                                                  contiki-srf06-cc26xx.a(uip-icmp6.o)
                                                  contiki-srf06-cc26xx.a(er-coap-observe)
                                                  contiki-srf06-cc26xx.a(er-coap-engine.)
uip_appdata                                       contiki-srf06-cc26xx.a(uip6.o)
                                                  contiki-srf06-cc26xx.a(psock.o)
                                                  contiki-srf06-cc26xx.a(tcp-socket.o)
                                                  contiki-srf06-cc26xx.a(er-coap-engine.)
                                                  obj_srf06-cc26xx/net-uart.o
                                                  obj_srf06-cc26xx/cetic-6lbr-client.o
uip_chksum                                        contiki-srf06-cc26xx.a(uip6.o)
uip_conn                                          contiki-srf06-cc26xx.a(uip6.o)
                                                  contiki-srf06-cc26xx.a(tcpip.o)
                                                  contiki-srf06-cc26xx.a(psock.o)
                                                  contiki-srf06-cc26xx.a(tcp-socket.o)
                                                  obj_srf06-cc26xx/httpd-simple.o
uip_connect                                       contiki-srf06-cc26xx.a(uip6.o)
                                                  contiki-srf06-cc26xx.a(tcpip.o)
uip_conns                                         contiki-srf06-cc26xx.a(uip6.o)
                                                  contiki-srf06-cc26xx.a(tcpip.o)
uip_debug_ipaddr_print                            contiki-srf06-cc26xx.a(uip-debug.o)
                                                  contiki-srf06-cc26xx.a(uip-ds6-route.o)
uip_ds6_aaddr_add                                 contiki-srf06-cc26xx.a(uip-ds6.o)
uip_ds6_aaddr_lookup                              contiki-srf06-cc26xx.a(uip-ds6.o)
uip_ds6_aaddr_rm                                  contiki-srf06-cc26xx.a(uip-ds6.o)
uip_ds6_addr_add                                  contiki-srf06-cc26xx.a(uip-ds6.o)
                                                  contiki-srf06-cc26xx.a(rpl-dag.o)
uip_ds6_addr_lookup                               contiki-srf06-cc26xx.a(uip-ds6.o)
                                                  contiki-srf06-cc26xx.a(rpl-ext-header.)
                                                  contiki-srf06-cc26xx.a(rpl-dag.o)
                                                  contiki-srf06-cc26xx.a(uip-nd6.o)
                                                  contiki-srf06-cc26xx.a(uip6.o)
uip_ds6_addr_rm                                   contiki-srf06-cc26xx.a(uip-ds6.o)
                                                  contiki-srf06-cc26xx.a(rpl-dag.o)
uip_ds6_addr_size                                 contiki-srf06-cc26xx.a(uip-ds6.o)
uip_ds6_compute_reachable_time                    contiki-srf06-cc26xx.a(uip-ds6.o)
uip_ds6_defrt_add                                 contiki-srf06-cc26xx.a(uip-ds6-route.o)
                                                  contiki-srf06-cc26xx.a(rpl-dag.o)
uip_ds6_defrt_choose                              contiki-srf06-cc26xx.a(uip-ds6-route.o)
                                                  contiki-srf06-cc26xx.a(tcpip.o)
                                                  obj_srf06-cc26xx/httpd-simple.o
                                                  obj_srf06-cc26xx/mqtt-client.o
                                                  obj_srf06-cc26xx/res-net.o
                                                  cc26xx-web-demo.co
uip_ds6_defrt_head                                contiki-srf06-cc26xx.a(uip-ds6-route.o)
uip_ds6_defrt_lookup                              contiki-srf06-cc26xx.a(uip-ds6-route.o)
uip_ds6_defrt_periodic                            contiki-srf06-cc26xx.a(uip-ds6-route.o)
                                                  contiki-srf06-cc26xx.a(uip-ds6.o)
uip_ds6_defrt_rm                                  contiki-srf06-cc26xx.a(uip-ds6-route.o)
                                                  contiki-srf06-cc26xx.a(rpl-dag.o)
uip_ds6_get_global                                contiki-srf06-cc26xx.a(uip-ds6.o)
                                                  obj_srf06-cc26xx/mqtt-client.o
                                                  obj_srf06-cc26xx/cetic-6lbr-client.o
                                                  cc26xx-web-demo.co
uip_ds6_get_link_local                            contiki-srf06-cc26xx.a(uip-ds6.o)
                                                  contiki-srf06-cc26xx.a(rpl-timers.o)
uip_ds6_if                                        contiki-srf06-cc26xx.a(uip-ds6.o)
                                                  contiki-srf06-cc26xx.a(rpl-icmp6.o)
                                                  contiki-srf06-cc26xx.a(rpl-ext-header.)
                                                  contiki-srf06-cc26xx.a(uip6.o)
                                                  contiki-srf06-cc26xx.a(uip-icmp6.o)
uip_ds6_init                                      contiki-srf06-cc26xx.a(uip-ds6.o)
                                                  contiki-srf06-cc26xx.a(uip6.o)
uip_ds6_is_addr_onlink                            contiki-srf06-cc26xx.a(uip-ds6.o)
                                                  contiki-srf06-cc26xx.a(tcpip.o)
                                                  contiki-srf06-cc26xx.a(uip6.o)
uip_ds6_link_neighbor_callback                    contiki-srf06-cc26xx.a(uip-ds6-nbr.o)
                                                  contiki-srf06-cc26xx.a(sicslowpan.o)
uip_ds6_list_loop                                 contiki-srf06-cc26xx.a(uip-ds6.o)
uip_ds6_maddr_add                                 contiki-srf06-cc26xx.a(uip-ds6.o)
                                                  contiki-srf06-cc26xx.a(rpl.o)
uip_ds6_maddr_lookup                              contiki-srf06-cc26xx.a(uip-ds6.o)
                                                  contiki-srf06-cc26xx.a(uip6.o)
uip_ds6_maddr_rm                                  contiki-srf06-cc26xx.a(uip-ds6.o)
uip_ds6_nbr_add                                   contiki-srf06-cc26xx.a(uip-ds6-nbr.o)
                                                  contiki-srf06-cc26xx.a(rpl-icmp6.o)
                                                  contiki-srf06-cc26xx.a(uip-nd6.o)
uip_ds6_nbr_get_ipaddr                            contiki-srf06-cc26xx.a(uip-ds6-nbr.o)
uip_ds6_nbr_get_ll                                contiki-srf06-cc26xx.a(uip-ds6-nbr.o)
                                                  contiki-srf06-cc26xx.a(rpl-dag.o)
                                                  contiki-srf06-cc26xx.a(tcpip.o)
                                                  contiki-srf06-cc26xx.a(uip-nd6.o)
uip_ds6_nbr_ipaddr_from_lladdr                    contiki-srf06-cc26xx.a(uip-ds6-nbr.o)
                                                  contiki-srf06-cc26xx.a(rpl-dag.o)
                                                  contiki-srf06-cc26xx.a(uip-ds6-route.o)
uip_ds6_nbr_ll_lookup                             contiki-srf06-cc26xx.a(uip-ds6-nbr.o)
uip_ds6_nbr_lladdr_from_ipaddr                    contiki-srf06-cc26xx.a(uip-ds6-nbr.o)
                                                  contiki-srf06-cc26xx.a(rpl-dag.o)
                                                  contiki-srf06-cc26xx.a(uip-ds6-route.o)
uip_ds6_nbr_lookup                                contiki-srf06-cc26xx.a(uip-ds6-nbr.o)
                                                  contiki-srf06-cc26xx.a(rpl-icmp6.o)
                                                  contiki-srf06-cc26xx.a(rpl-dag.o)
                                                  contiki-srf06-cc26xx.a(tcpip.o)
                                                  contiki-srf06-cc26xx.a(uip-nd6.o)
                                                  contiki-srf06-cc26xx.a(uip-ds6-route.o)
uip_ds6_nbr_num                                   contiki-srf06-cc26xx.a(uip-ds6-nbr.o)
                                                  contiki-srf06-cc26xx.a(rpl-dag.o)
uip_ds6_nbr_rm                                    contiki-srf06-cc26xx.a(uip-ds6-nbr.o)
uip_ds6_neighbors_init                            contiki-srf06-cc26xx.a(uip-ds6-nbr.o)
                                                  contiki-srf06-cc26xx.a(uip-ds6.o)
uip_ds6_netif_addr_list_offset                    contiki-srf06-cc26xx.a(uip-ds6.o)
uip_ds6_notification_add                          contiki-srf06-cc26xx.a(uip-ds6-route.o)
uip_ds6_notification_rm                           contiki-srf06-cc26xx.a(uip-ds6-route.o)
uip_ds6_periodic                                  contiki-srf06-cc26xx.a(uip-ds6.o)
                                                  contiki-srf06-cc26xx.a(tcpip.o)
uip_ds6_prefix_add                                contiki-srf06-cc26xx.a(uip-ds6.o)
uip_ds6_prefix_list                               contiki-srf06-cc26xx.a(uip-ds6.o)
uip_ds6_prefix_lookup                             contiki-srf06-cc26xx.a(uip-ds6.o)
uip_ds6_prefix_rm                                 contiki-srf06-cc26xx.a(uip-ds6.o)
uip_ds6_route_add                                 contiki-srf06-cc26xx.a(uip-ds6-route.o)
                                                  contiki-srf06-cc26xx.a(rpl.o)
uip_ds6_route_head                                contiki-srf06-cc26xx.a(uip-ds6-route.o)
                                                  contiki-srf06-cc26xx.a(rpl.o)
                                                  obj_srf06-cc26xx/httpd-simple.o
uip_ds6_route_init                                contiki-srf06-cc26xx.a(uip-ds6-route.o)
                                                  contiki-srf06-cc26xx.a(uip-ds6.o)
uip_ds6_route_is_nexthop                          contiki-srf06-cc26xx.a(uip-ds6-route.o)
                                                  contiki-srf06-cc26xx.a(rpl-nbr-policy.)
                                                  contiki-srf06-cc26xx.a(rpl-dag.o)
uip_ds6_route_lookup                              contiki-srf06-cc26xx.a(uip-ds6-route.o)
                                                  contiki-srf06-cc26xx.a(rpl-icmp6.o)
                                                  contiki-srf06-cc26xx.a(rpl-ext-header.)
                                                  contiki-srf06-cc26xx.a(tcpip.o)
uip_ds6_route_next                                contiki-srf06-cc26xx.a(uip-ds6-route.o)
                                                  contiki-srf06-cc26xx.a(rpl.o)
                                                  obj_srf06-cc26xx/httpd-simple.o
uip_ds6_route_nexthop                             contiki-srf06-cc26xx.a(uip-ds6-route.o)
                                                  contiki-srf06-cc26xx.a(rpl-icmp6.o)
                                                  contiki-srf06-cc26xx.a(rpl.o)
                                                  contiki-srf06-cc26xx.a(tcpip.o)
                                                  obj_srf06-cc26xx/httpd-simple.o
uip_ds6_route_num_routes                          contiki-srf06-cc26xx.a(uip-ds6-route.o)
uip_ds6_route_rm                                  contiki-srf06-cc26xx.a(uip-ds6-route.o)
                                                  contiki-srf06-cc26xx.a(rpl.o)
                                                  contiki-srf06-cc26xx.a(rpl-ext-header.)
                                                  contiki-srf06-cc26xx.a(tcpip.o)
uip_ds6_route_rm_by_nexthop                       contiki-srf06-cc26xx.a(uip-ds6-route.o)
uip_ds6_select_src                                contiki-srf06-cc26xx.a(uip-ds6.o)
                                                  contiki-srf06-cc26xx.a(uip6.o)
                                                  contiki-srf06-cc26xx.a(uip-icmp6.o)
uip_ds6_set_addr_iid                              contiki-srf06-cc26xx.a(uip-ds6.o)
                                                  contiki-srf06-cc26xx.a(rpl.o)
                                                  contiki-srf06-cc26xx.a(rpl-dag.o)
                                                  contiki-srf06-cc26xx.a(sicslowpan.o)
uip_ds6_timer_periodic                            contiki-srf06-cc26xx.a(uip-ds6.o)
                                                  contiki-srf06-cc26xx.a(tcpip.o)
uip_ds6_timer_ra                                  contiki-srf06-cc26xx.a(uip-ds6.o)
uip_ext_bitmap                                    contiki-srf06-cc26xx.a(uip6.o)
uip_ext_len                                       contiki-srf06-cc26xx.a(uip6.o)
                                                  contiki-srf06-cc26xx.a(rpl-icmp6.o)
                                                  contiki-srf06-cc26xx.a(rpl-ext-header.)
                                                  contiki-srf06-cc26xx.a(tcpip.o)
                                                  contiki-srf06-cc26xx.a(uip-nd6.o)
                                                  contiki-srf06-cc26xx.a(uip-icmp6.o)
                                                  contiki-srf06-cc26xx.a(er-coap-observe)
                                                  contiki-srf06-cc26xx.a(er-coap-engine.)
uip_ext_opt_offset                                contiki-srf06-cc26xx.a(uip6.o)
uip_flags                                         contiki-srf06-cc26xx.a(uip6.o)
                                                  contiki-srf06-cc26xx.a(tcpip.o)
                                                  contiki-srf06-cc26xx.a(psock.o)
                                                  contiki-srf06-cc26xx.a(tcp-socket.o)
                                                  contiki-srf06-cc26xx.a(er-coap-engine.)
                                                  obj_srf06-cc26xx/httpd-simple.o
                                                  obj_srf06-cc26xx/net-uart.o
                                                  obj_srf06-cc26xx/cetic-6lbr-client.o
uip_htonl                                         contiki-srf06-cc26xx.a(uip6.o)
                                                  contiki-srf06-cc26xx.a(uip-icmp6.o)
uip_htons                                         contiki-srf06-cc26xx.a(uip6.o)
                                                  contiki-srf06-cc26xx.a(tcp-socket.o)
uip_icmp6_conns                                   contiki-srf06-cc26xx.a(uip6.o)
                                                  contiki-srf06-cc26xx.a(tcpip.o)
uip_icmp6_echo_reply_callback_add                 contiki-srf06-cc26xx.a(uip-icmp6.o)
                                                  cc26xx-web-demo.co
uip_icmp6_echo_reply_callback_rm                  contiki-srf06-cc26xx.a(uip-icmp6.o)
uip_icmp6_error_output                            contiki-srf06-cc26xx.a(uip-icmp6.o)
                                                  contiki-srf06-cc26xx.a(uip6.o)
uip_icmp6_init                                    contiki-srf06-cc26xx.a(uip-icmp6.o)
                                                  contiki-srf06-cc26xx.a(uip6.o)
uip_icmp6_input                                   contiki-srf06-cc26xx.a(uip-icmp6.o)
                                                  contiki-srf06-cc26xx.a(uip6.o)
uip_icmp6_register_input_handler                  contiki-srf06-cc26xx.a(uip-icmp6.o)
                                                  contiki-srf06-cc26xx.a(rpl-icmp6.o)
                                                  contiki-srf06-cc26xx.a(uip-nd6.o)
uip_icmp6_send                                    contiki-srf06-cc26xx.a(uip-icmp6.o)
                                                  contiki-srf06-cc26xx.a(rpl-icmp6.o)
                                                  cc26xx-web-demo.co
uip_icmp6chksum                                   contiki-srf06-cc26xx.a(uip6.o)
                                                  contiki-srf06-cc26xx.a(uip-nd6.o)
                                                  contiki-srf06-cc26xx.a(uip-icmp6.o)
uip_init                                          contiki-srf06-cc26xx.a(uip6.o)
                                                  contiki-srf06-cc26xx.a(tcpip.o)
uip_ipchksum                                      contiki-srf06-cc26xx.a(uip6.o)
uip_len                                           contiki-srf06-cc26xx.a(uip6.o)
                                                  contiki-srf06-cc26xx.a(rpl-icmp6.o)
                                                  contiki-srf06-cc26xx.a(rpl-ext-header.)
                                                  contiki-srf06-cc26xx.a(tcpip.o)
                                                  contiki-srf06-cc26xx.a(psock.o)
                                                  contiki-srf06-cc26xx.a(tcp-socket.o)
                                                  contiki-srf06-cc26xx.a(sicslowpan.o)
                                                  contiki-srf06-cc26xx.a(uip-nd6.o)
                                                  contiki-srf06-cc26xx.a(uip-icmp6.o)
                                                  contiki-srf06-cc26xx.a(er-coap-engine.)
                                                  obj_srf06-cc26xx/net-uart.o
                                                  obj_srf06-cc26xx/cetic-6lbr-client.o
uip_listen                                        contiki-srf06-cc26xx.a(uip6.o)
                                                  contiki-srf06-cc26xx.a(tcpip.o)
uip_listenports                                   contiki-srf06-cc26xx.a(uip6.o)
uip_lladdr                                        contiki-srf06-cc26xx.a(uip6.o)
                                                  contiki-srf06-cc26xx.a(rpl-dag.o)
                                                  contiki-srf06-cc26xx.a(sicslowpan.o)
                                                  contiki-srf06-cc26xx.a(uip-nd6.o)
                                                  contiki-srf06-cc26xx.a(uip-ds6.o)
                                                  contiki-srf06-cc26xx.a(contiki-main.o)
uip_nd6_init                                      contiki-srf06-cc26xx.a(uip-nd6.o)
                                                  contiki-srf06-cc26xx.a(uip6.o)
uip_next_hdr                                      contiki-srf06-cc26xx.a(uip6.o)
uip_process                                       contiki-srf06-cc26xx.a(uip6.o)
                                                  contiki-srf06-cc26xx.a(tcpip.o)
                                                  contiki-srf06-cc26xx.a(uip-udp-packet.)
uip_sappdata                                      contiki-srf06-cc26xx.a(uip6.o)
uip_send                                          contiki-srf06-cc26xx.a(uip6.o)
                                                  contiki-srf06-cc26xx.a(psock.o)
                                                  contiki-srf06-cc26xx.a(tcp-socket.o)
uip_slen                                          contiki-srf06-cc26xx.a(uip6.o)
                                                  contiki-srf06-cc26xx.a(uip-udp-packet.)
uip_tcpchksum                                     contiki-srf06-cc26xx.a(uip6.o)
uip_udp_conn                                      contiki-srf06-cc26xx.a(uip6.o)
                                                  contiki-srf06-cc26xx.a(tcpip.o)
                                                  contiki-srf06-cc26xx.a(uip-udp-packet.)
uip_udp_conns                                     contiki-srf06-cc26xx.a(uip6.o)
                                                  contiki-srf06-cc26xx.a(tcpip.o)
uip_udp_new                                       contiki-srf06-cc26xx.a(uip6.o)
                                                  contiki-srf06-cc26xx.a(tcpip.o)
uip_udp_packet_send                               contiki-srf06-cc26xx.a(uip-udp-packet.)
                                                  contiki-srf06-cc26xx.a(er-coap.o)
                                                  obj_srf06-cc26xx/cetic-6lbr-client.o
uip_udp_packet_sendto                             contiki-srf06-cc26xx.a(uip-udp-packet.)
                                                  obj_srf06-cc26xx/net-uart.o
uip_udpchksum                                     contiki-srf06-cc26xx.a(uip6.o)
uip_unlisten                                      contiki-srf06-cc26xx.a(uip6.o)
                                                  contiki-srf06-cc26xx.a(tcpip.o)
uiplib_ip4addrconv                                contiki-srf06-cc26xx.a(uiplib.o)
uiplib_ip6addrconv                                contiki-srf06-cc26xx.a(uiplib.o)
                                                  contiki-srf06-cc26xx.a(mqtt.o)
                                                  obj_srf06-cc26xx/mqtt-client.o
                                                  obj_srf06-cc26xx/net-uart.o
unc_ctxconf                                       contiki-srf06-cc26xx.a(sicslowpan.o)
unc_llconf                                        contiki-srf06-cc26xx.a(sicslowpan.o)
unc_mxconf                                        contiki-srf06-cc26xx.a(sicslowpan.o)
vsnprintf                                         contiki-srf06-cc26xx.a(dbg-snprintf.o)
                                                  obj_srf06-cc26xx/httpd-simple.o
watchdog_init                                     contiki-srf06-cc26xx.a(contiki-watchdo)
                                                  contiki-srf06-cc26xx.a(contiki-main.o)
watchdog_periodic                                 contiki-srf06-cc26xx.a(contiki-watchdo)
                                                  contiki-srf06-cc26xx.a(rf-core.o)
                                                  contiki-srf06-cc26xx.a(contikimac.o)
                                                  contiki-srf06-cc26xx.a(sicslowpan.o)
                                                  contiki-srf06-cc26xx.a(lpm.o)
                                                  contiki-srf06-cc26xx.a(contiki-main.o)
watchdog_reboot                                   contiki-srf06-cc26xx.a(contiki-watchdo)
watchdog_start                                    contiki-srf06-cc26xx.a(contiki-watchdo)
                                                  contiki-srf06-cc26xx.a(contiki-main.o)
watchdog_stop                                     contiki-srf06-cc26xx.a(contiki-watchdo)
well_known_core_get_handler                       contiki-srf06-cc26xx.a(er-coap-res-wel)
